---
triple:          'arm64-apple-darwin'
binary-path:     '/Users/nimajamalian/Documents/GitHub/Algorithms-and-Data-Structures/Algorithms & Data Structures Problems/Techniques/HahshMap'
relocations:
  - { offsetInCU: 0x157, offset: 0x157, size: 0x8, addend: 0x0, symName: __ZSt23__is_constant_evaluatedv, symObjAddr: 0x0, symBinAddr: 0x10000096C, symSize: 0x8 }
  - { offsetInCU: 0x15F, offset: 0x15F, size: 0x8, addend: 0x0, symName: __ZSt19piecewise_construct, symObjAddr: 0x3C88, symBinAddr: 0x100005144, symSize: 0x0 }
  - { offsetInCU: 0x2994, offset: 0x2994, size: 0x8, addend: 0x0, symName: __ZSt19piecewise_construct, symObjAddr: 0x3C88, symBinAddr: 0x100005144, symSize: 0x0 }
  - { offsetInCU: 0x6FB0, offset: 0x6FB0, size: 0x8, addend: 0x0, symName: __ZStL8__ioinit, symObjAddr: 0x4E7F0, symBinAddr: 0x10000C0F6, symSize: 0x0 }
  - { offsetInCU: 0xF26A, offset: 0xF26A, size: 0x8, addend: 0x0, symName: __ZNSt8__detail30__integer_to_chars_is_unsignedIjEE, symObjAddr: 0x3C89, symBinAddr: 0x100005145, symSize: 0x0 }
  - { offsetInCU: 0xF284, offset: 0xF284, size: 0x8, addend: 0x0, symName: __ZNSt8__detail30__integer_to_chars_is_unsignedImEE, symObjAddr: 0x3C8A, symBinAddr: 0x100005146, symSize: 0x0 }
  - { offsetInCU: 0xF29E, offset: 0xF29E, size: 0x8, addend: 0x0, symName: __ZNSt8__detail30__integer_to_chars_is_unsignedIyEE, symObjAddr: 0x3C8B, symBinAddr: 0x100005147, symSize: 0x0 }
  - { offsetInCU: 0xF2C9, offset: 0xF2C9, size: 0x8, addend: 0x0, symName: __GLOBAL__sub_I_HahshMap.cpp, symObjAddr: 0x3C74, symBinAddr: 0x1000045E0, symSize: 0x14 }
  - { offsetInCU: 0xF2D1, offset: 0xF2D1, size: 0x8, addend: 0x0, symName: __ZSt19piecewise_construct, symObjAddr: 0x3C88, symBinAddr: 0x100005144, symSize: 0x0 }
  - { offsetInCU: 0xF2F1, offset: 0xF2F1, size: 0x8, addend: 0x0, symName: __Z41__static_initialization_and_destruction_0v, symObjAddr: 0x3C38, symBinAddr: 0x1000045A4, symSize: 0x3C }
  - { offsetInCU: 0xF2F9, offset: 0xF2F9, size: 0x8, addend: 0x0, symName: __GLOBAL__sub_I_HahshMap.cpp, symObjAddr: 0x3C74, symBinAddr: 0x1000045E0, symSize: 0x14 }
  - { offsetInCU: 0xF2E3, offset: 0xF2E3, size: 0x8, addend: 0x0, symName: __ZNSt10_Head_baseILm0ERKcLb0EE7_M_headERS2_, symObjAddr: 0x3C20, symBinAddr: 0x10000458C, symSize: 0x18 }
  - { offsetInCU: 0xF2EB, offset: 0xF2EB, size: 0x8, addend: 0x0, symName: __Z41__static_initialization_and_destruction_0v, symObjAddr: 0x3C38, symBinAddr: 0x1000045A4, symSize: 0x3C }
  - { offsetInCU: 0xF314, offset: 0xF314, size: 0x8, addend: 0x0, symName: __ZNSt11_Tuple_implILm0EJRKcEE7_M_headERS2_, symObjAddr: 0x3C04, symBinAddr: 0x100004570, symSize: 0x1C }
  - { offsetInCU: 0xF31C, offset: 0xF31C, size: 0x8, addend: 0x0, symName: __ZNSt10_Head_baseILm0ERKcLb0EE7_M_headERS2_, symObjAddr: 0x3C20, symBinAddr: 0x10000458C, symSize: 0x18 }
  - { offsetInCU: 0xF387, offset: 0xF387, size: 0x8, addend: 0x0, symName: __ZSt4moveIRiEONSt16remove_referenceIT_E4typeEOS2_, symObjAddr: 0x3BF0, symBinAddr: 0x10000455C, symSize: 0x14 }
  - { offsetInCU: 0xF38F, offset: 0xF38F, size: 0x8, addend: 0x0, symName: __ZNSt11_Tuple_implILm0EJRKcEE7_M_headERS2_, symObjAddr: 0x3C04, symBinAddr: 0x100004570, symSize: 0x1C }
  - { offsetInCU: 0xF3DC, offset: 0xF3DC, size: 0x8, addend: 0x0, symName: __ZSt4moveIRcEONSt16remove_referenceIT_E4typeEOS2_, symObjAddr: 0x3BDC, symBinAddr: 0x100004548, symSize: 0x14 }
  - { offsetInCU: 0xF3E4, offset: 0xF3E4, size: 0x8, addend: 0x0, symName: __ZSt4moveIRiEONSt16remove_referenceIT_E4typeEOS2_, symObjAddr: 0x3BF0, symBinAddr: 0x10000455C, symSize: 0x14 }
  - { offsetInCU: 0xF46B, offset: 0xF46B, size: 0x8, addend: 0x0, symName: __ZSt12__get_helperILm0ERKcJEERT0_RSt11_Tuple_implIXT_EJS2_DpT1_EE, symObjAddr: 0x3BC0, symBinAddr: 0x10000452C, symSize: 0x1C }
  - { offsetInCU: 0xF473, offset: 0xF473, size: 0x8, addend: 0x0, symName: __ZSt4moveIRcEONSt16remove_referenceIT_E4typeEOS2_, symObjAddr: 0x3BDC, symBinAddr: 0x100004548, symSize: 0x14 }
  - { offsetInCU: 0xF46B, offset: 0xF46B, size: 0x8, addend: 0x0, symName: __ZNK9__gnu_cxx16__aligned_bufferISt4pairIKciEE7_M_addrEv, symObjAddr: 0x3BAC, symBinAddr: 0x100004518, symSize: 0x14 }
  - { offsetInCU: 0xF473, offset: 0xF473, size: 0x8, addend: 0x0, symName: __ZSt12__get_helperILm0ERKcJEERT0_RSt11_Tuple_implIXT_EJS2_DpT1_EE, symObjAddr: 0x3BC0, symBinAddr: 0x10000452C, symSize: 0x1C }
  - { offsetInCU: 0xF49D, offset: 0xF49D, size: 0x8, addend: 0x0, symName: __ZNSt20__copy_move_backwardILb1ELb0ESt26random_access_iterator_tagE13__copy_move_bIPSt4pairIciES5_EET0_T_S7_S6_, symObjAddr: 0x3B30, symBinAddr: 0x10000449C, symSize: 0x7C }
  - { offsetInCU: 0xF4A5, offset: 0xF4A5, size: 0x8, addend: 0x0, symName: __ZNK9__gnu_cxx16__aligned_bufferISt4pairIKciEE7_M_addrEv, symObjAddr: 0x3BAC, symBinAddr: 0x100004518, symSize: 0x14 }
  - { offsetInCU: 0xF5CB, offset: 0xF5CB, size: 0x8, addend: 0x0, symName: __ZSt4swapIiENSt9enable_ifIXsrSt6__and_IJSt6__not_ISt15__is_tuple_likeIT_EESt21is_move_constructibleIS4_ESt18is_move_assignableIS4_EEE5valueEvE4typeERS4_SE_, symObjAddr: 0x3ADC, symBinAddr: 0x100004448, symSize: 0x54 }
  - { offsetInCU: 0xF5D3, offset: 0xF5D3, size: 0x8, addend: 0x0, symName: __ZNSt20__copy_move_backwardILb1ELb0ESt26random_access_iterator_tagE13__copy_move_bIPSt4pairIciES5_EET0_T_S7_S6_, symObjAddr: 0x3B30, symBinAddr: 0x10000449C, symSize: 0x7C }
  - { offsetInCU: 0xF634, offset: 0xF634, size: 0x8, addend: 0x0, symName: __ZSt4swapIcENSt9enable_ifIXsrSt6__and_IJSt6__not_ISt15__is_tuple_likeIT_EESt21is_move_constructibleIS4_ESt18is_move_assignableIS4_EEE5valueEvE4typeERS4_SE_, symObjAddr: 0x3A88, symBinAddr: 0x1000043F4, symSize: 0x54 }
  - { offsetInCU: 0xF63C, offset: 0xF63C, size: 0x8, addend: 0x0, symName: __ZSt4swapIiENSt9enable_ifIXsrSt6__and_IJSt6__not_ISt15__is_tuple_likeIT_EESt21is_move_constructibleIS4_ESt18is_move_assignableIS4_EEE5valueEvE4typeERS4_SE_, symObjAddr: 0x3ADC, symBinAddr: 0x100004448, symSize: 0x54 }
  - { offsetInCU: 0xF5F5, offset: 0xF5F5, size: 0x8, addend: 0x0, symName: __ZN9__gnu_cxx5__ops14_Iter_comp_valIPFbRSt4pairIciES4_EEclINS_17__normal_iteratorIPS3_St6vectorIS3_SaIS3_EEEES3_EEbT_RT0_, symObjAddr: 0x3A48, symBinAddr: 0x1000043B4, symSize: 0x40 }
  - { offsetInCU: 0xF5FD, offset: 0xF5FD, size: 0x8, addend: 0x0, symName: __ZSt4swapIcENSt9enable_ifIXsrSt6__and_IJSt6__not_ISt15__is_tuple_likeIT_EESt21is_move_constructibleIS4_ESt18is_move_assignableIS4_EEE5valueEvE4typeERS4_SE_, symObjAddr: 0x3A88, symBinAddr: 0x1000043F4, symSize: 0x54 }
  - { offsetInCU: 0xF664, offset: 0xF664, size: 0x8, addend: 0x0, symName: __ZNSt15__new_allocatorIPNSt8__detail15_Hash_node_baseEE8allocateEmPKv, symObjAddr: 0x39CC, symBinAddr: 0x100004338, symSize: 0x7C }
  - { offsetInCU: 0xF66C, offset: 0xF66C, size: 0x8, addend: 0x0, symName: __ZN9__gnu_cxx5__ops14_Iter_comp_valIPFbRSt4pairIciES4_EEclINS_17__normal_iteratorIPS3_St6vectorIS3_SaIS3_EEEES3_EEbT_RT0_, symObjAddr: 0x3A48, symBinAddr: 0x1000043B4, symSize: 0x40 }
  - { offsetInCU: 0xF739, offset: 0xF739, size: 0x8, addend: 0x0, symName: __ZSt7forwardIRKcEOT_RNSt16remove_referenceIS2_E4typeE, symObjAddr: 0x39B8, symBinAddr: 0x100004324, symSize: 0x14 }
  - { offsetInCU: 0xF741, offset: 0xF741, size: 0x8, addend: 0x0, symName: __ZNSt15__new_allocatorIPNSt8__detail15_Hash_node_baseEE8allocateEmPKv, symObjAddr: 0x39CC, symBinAddr: 0x100004338, symSize: 0x7C }
  - { offsetInCU: 0xF79F, offset: 0xF79F, size: 0x8, addend: 0x0, symName: __ZSt3getILm0EJRKcEERNSt13tuple_elementIXT_ESt5tupleIJDpT0_EEE4typeERS6_, symObjAddr: 0x399C, symBinAddr: 0x100004308, symSize: 0x1C }
  - { offsetInCU: 0xF7A7, offset: 0xF7A7, size: 0x8, addend: 0x0, symName: __ZSt7forwardIRKcEOT_RNSt16remove_referenceIS2_E4typeE, symObjAddr: 0x39B8, symBinAddr: 0x100004324, symSize: 0x14 }
  - { offsetInCU: 0xF79A, offset: 0xF79A, size: 0x8, addend: 0x0, symName: __ZNK9__gnu_cxx16__aligned_bufferISt4pairIKciEE6_M_ptrEv, symObjAddr: 0x3980, symBinAddr: 0x1000042EC, symSize: 0x1C }
  - { offsetInCU: 0xF7A2, offset: 0xF7A2, size: 0x8, addend: 0x0, symName: __ZSt3getILm0EJRKcEERNSt13tuple_elementIXT_ESt5tupleIJDpT0_EEE4typeERS6_, symObjAddr: 0x399C, symBinAddr: 0x100004308, symSize: 0x1C }
  - { offsetInCU: 0xF859, offset: 0xF859, size: 0x8, addend: 0x0, symName: __ZSt23__copy_move_backward_a2ILb1EPSt4pairIciES2_ET1_T0_S4_S3_, symObjAddr: 0x3954, symBinAddr: 0x1000042C0, symSize: 0x2C }
  - { offsetInCU: 0xF861, offset: 0xF861, size: 0x8, addend: 0x0, symName: __ZNK9__gnu_cxx16__aligned_bufferISt4pairIKciEE6_M_ptrEv, symObjAddr: 0x3980, symBinAddr: 0x1000042EC, symSize: 0x1C }
  - { offsetInCU: 0xF858, offset: 0xF858, size: 0x8, addend: 0x0, symName: __ZNSt4pairIciE4swapERS0_, symObjAddr: 0x3910, symBinAddr: 0x10000427C, symSize: 0x44 }
  - { offsetInCU: 0xF860, offset: 0xF860, size: 0x8, addend: 0x0, symName: __ZSt23__copy_move_backward_a2ILb1EPSt4pairIciES2_ET1_T0_S4_S3_, symObjAddr: 0x3954, symBinAddr: 0x1000042C0, symSize: 0x2C }
  - { offsetInCU: 0xFA0D, offset: 0xFA0D, size: 0x8, addend: 0x0, symName: __ZSt11__push_heapIN9__gnu_cxx17__normal_iteratorIPSt4pairIciESt6vectorIS3_SaIS3_EEEElS3_NS0_5__ops14_Iter_comp_valIPFbRS3_SB_EEEEvT_T0_SG_T1_RT2_, symObjAddr: 0x37E0, symBinAddr: 0x10000414C, symSize: 0x130 }
  - { offsetInCU: 0xFA15, offset: 0xFA15, size: 0x8, addend: 0x0, symName: __ZNSt4pairIciE4swapERS0_, symObjAddr: 0x3910, symBinAddr: 0x10000427C, symSize: 0x44 }
  - { offsetInCU: 0xF9EE, offset: 0xF9EE, size: 0x8, addend: 0x0, symName: __ZN9__gnu_cxx5__ops14_Iter_comp_valIPFbRSt4pairIciES4_EEC1EONS0_15_Iter_comp_iterIS6_EE, symObjAddr: 0x37B0, symBinAddr: 0x10000411C, symSize: 0x30 }
  - { offsetInCU: 0xF9F6, offset: 0xF9F6, size: 0x8, addend: 0x0, symName: __ZSt11__push_heapIN9__gnu_cxx17__normal_iteratorIPSt4pairIciESt6vectorIS3_SaIS3_EEEElS3_NS0_5__ops14_Iter_comp_valIPFbRS3_SB_EEEEvT_T0_SG_T1_RT2_, symObjAddr: 0x37E0, symBinAddr: 0x10000414C, symSize: 0x130 }
  - { offsetInCU: 0xFA3A, offset: 0xFA3A, size: 0x8, addend: 0x0, symName: __ZNSt4pairIciEC1IKciLb1EEERKS_IT_T0_E, symObjAddr: 0x3778, symBinAddr: 0x1000040E4, symSize: 0x38 }
  - { offsetInCU: 0xFA42, offset: 0xFA42, size: 0x8, addend: 0x0, symName: __ZN9__gnu_cxx5__ops14_Iter_comp_valIPFbRSt4pairIciES4_EEC1EONS0_15_Iter_comp_iterIS6_EE, symObjAddr: 0x37B0, symBinAddr: 0x10000411C, symSize: 0x30 }
  - { offsetInCU: 0xFAD1, offset: 0xFAD1, size: 0x8, addend: 0x0, symName: __ZSt7forwardIRSt4pairIKciEEOT_RNSt16remove_referenceIS4_E4typeE, symObjAddr: 0x3764, symBinAddr: 0x1000040D0, symSize: 0x14 }
  - { offsetInCU: 0xFAD9, offset: 0xFAD9, size: 0x8, addend: 0x0, symName: __ZNSt4pairIciEC1IKciLb1EEERKS_IT_T0_E, symObjAddr: 0x3778, symBinAddr: 0x1000040E4, symSize: 0x38 }
  - { offsetInCU: 0xFB28, offset: 0xFB28, size: 0x8, addend: 0x0, symName: __ZSt12__to_addressIPNSt8__detail15_Hash_node_baseEEPT_S4_, symObjAddr: 0x3750, symBinAddr: 0x1000040BC, symSize: 0x14 }
  - { offsetInCU: 0xFB30, offset: 0xFB30, size: 0x8, addend: 0x0, symName: __ZSt7forwardIRSt4pairIKciEEOT_RNSt16remove_referenceIS4_E4typeE, symObjAddr: 0x3764, symBinAddr: 0x1000040D0, symSize: 0x14 }
  - { offsetInCU: 0xFC1B, offset: 0xFC1B, size: 0x8, addend: 0x0, symName: __ZNSt4pairIKciEC1IJRS0_EJLm0EEJEJEEERSt5tupleIJDpT_EERS4_IJDpT1_EESt12_Index_tupleIJXspT0_EEESD_IJXspT2_EEE, symObjAddr: 0x3708, symBinAddr: 0x100004074, symSize: 0x48 }
  - { offsetInCU: 0xFC23, offset: 0xFC23, size: 0x8, addend: 0x0, symName: __ZSt12__to_addressIPNSt8__detail15_Hash_node_baseEEPT_S4_, symObjAddr: 0x3750, symBinAddr: 0x1000040BC, symSize: 0x14 }
  - { offsetInCU: 0xFCAC, offset: 0xFCAC, size: 0x8, addend: 0x0, symName: __ZSt7forwardIRKSt4pairIKciEEOT_RNSt16remove_referenceIS5_E4typeE, symObjAddr: 0x36F4, symBinAddr: 0x100004060, symSize: 0x14 }
  - { offsetInCU: 0xFCB4, offset: 0xFCB4, size: 0x8, addend: 0x0, symName: __ZNSt4pairIKciEC1IJRS0_EJLm0EEJEJEEERSt5tupleIJDpT_EERS4_IJDpT1_EESt12_Index_tupleIJXspT0_EEESD_IJXspT2_EEE, symObjAddr: 0x3708, symBinAddr: 0x100004074, symSize: 0x48 }
  - { offsetInCU: 0xFC90, offset: 0xFC90, size: 0x8, addend: 0x0, symName: __ZNKSt8__detail21_Hash_node_value_baseISt4pairIKciEE9_M_valptrEv, symObjAddr: 0x36D8, symBinAddr: 0x100004044, symSize: 0x1C }
  - { offsetInCU: 0xFC98, offset: 0xFC98, size: 0x8, addend: 0x0, symName: __ZSt7forwardIRKSt4pairIKciEEOT_RNSt16remove_referenceIS5_E4typeE, symObjAddr: 0x36F4, symBinAddr: 0x100004060, symSize: 0x14 }
  - { offsetInCU: 0xFCBF, offset: 0xFCBF, size: 0x8, addend: 0x0, symName: __ZNKSt8__detail21_Hashtable_ebo_helperILi0ESt8equal_toIcELb1EE7_M_cgetEv, symObjAddr: 0x36C4, symBinAddr: 0x100004030, symSize: 0x14 }
  - { offsetInCU: 0xFCC7, offset: 0xFCC7, size: 0x8, addend: 0x0, symName: __ZNKSt8__detail21_Hash_node_value_baseISt4pairIKciEE9_M_valptrEv, symObjAddr: 0x36D8, symBinAddr: 0x100004044, symSize: 0x1C }
  - { offsetInCU: 0xFD83, offset: 0xFD83, size: 0x8, addend: 0x0, symName: __ZSt11__addressofINSt8__detail10_Hash_nodeISt4pairIKciELb0EEEEPT_RS6_, symObjAddr: 0x36B0, symBinAddr: 0x10000401C, symSize: 0x14 }
  - { offsetInCU: 0xFD8B, offset: 0xFD8B, size: 0x8, addend: 0x0, symName: __ZNKSt8__detail21_Hashtable_ebo_helperILi0ESt8equal_toIcELb1EE7_M_cgetEv, symObjAddr: 0x36C4, symBinAddr: 0x100004030, symSize: 0x14 }
  - { offsetInCU: 0xFE1D, offset: 0xFE1D, size: 0x8, addend: 0x0, symName: __ZSt12__niter_wrapIN9__gnu_cxx17__normal_iteratorIPSt4pairIciESt6vectorIS3_SaIS3_EEEES4_ET_S9_T0_, symObjAddr: 0x3674, symBinAddr: 0x100003FE0, symSize: 0x3C }
  - { offsetInCU: 0xFE25, offset: 0xFE25, size: 0x8, addend: 0x0, symName: __ZSt11__addressofINSt8__detail10_Hash_nodeISt4pairIKciELb0EEEEPT_RS6_, symObjAddr: 0x36B0, symBinAddr: 0x10000401C, symSize: 0x14 }
  - { offsetInCU: 0xFE35, offset: 0xFE35, size: 0x8, addend: 0x0, symName: __ZSt23__copy_move_backward_a1ILb1EPSt4pairIciES2_ET1_T0_S4_S3_, symObjAddr: 0x3648, symBinAddr: 0x100003FB4, symSize: 0x2C }
  - { offsetInCU: 0xFE3D, offset: 0xFE3D, size: 0x8, addend: 0x0, symName: __ZSt12__niter_wrapIN9__gnu_cxx17__normal_iteratorIPSt4pairIciESt6vectorIS3_SaIS3_EEEES4_ET_S9_T0_, symObjAddr: 0x3674, symBinAddr: 0x100003FE0, symSize: 0x3C }
  - { offsetInCU: 0xFEE1, offset: 0xFEE1, size: 0x8, addend: 0x0, symName: __ZSt12__niter_baseIPSt4pairIciESt6vectorIS1_SaIS1_EEET_N9__gnu_cxx17__normal_iteratorIS6_T0_EE, symObjAddr: 0x3628, symBinAddr: 0x100003F94, symSize: 0x20 }
  - { offsetInCU: 0xFEE9, offset: 0xFEE9, size: 0x8, addend: 0x0, symName: __ZSt23__copy_move_backward_a1ILb1EPSt4pairIciES2_ET1_T0_S4_S3_, symObjAddr: 0x3648, symBinAddr: 0x100003FB4, symSize: 0x2C }
  - { offsetInCU: 0xFF0A, offset: 0xFF0A, size: 0x8, addend: 0x0, symName: __ZSt4swapIciENSt9enable_ifIXsrSt6__and_IJSt14__is_swappableIT_ES2_IT0_EEE5valueEvE4typeERSt4pairIS3_S5_ESC_, symObjAddr: 0x3600, symBinAddr: 0x100003F6C, symSize: 0x28 }
  - { offsetInCU: 0xFF12, offset: 0xFF12, size: 0x8, addend: 0x0, symName: __ZSt12__niter_baseIPSt4pairIciESt6vectorIS1_SaIS1_EEET_N9__gnu_cxx17__normal_iteratorIS6_T0_EE, symObjAddr: 0x3628, symBinAddr: 0x100003F94, symSize: 0x20 }
  - { offsetInCU: 0x1006A, offset: 0x1006A, size: 0x8, addend: 0x0, symName: __ZSt13__adjust_heapIN9__gnu_cxx17__normal_iteratorIPSt4pairIciESt6vectorIS3_SaIS3_EEEElS3_NS0_5__ops15_Iter_comp_iterIPFbRS3_SB_EEEEvT_T0_SG_T1_T2_, symObjAddr: 0x3424, symBinAddr: 0x100003D90, symSize: 0x1DC }
  - { offsetInCU: 0x10072, offset: 0x10072, size: 0x8, addend: 0x0, symName: __ZSt4swapIciENSt9enable_ifIXsrSt6__and_IJSt14__is_swappableIT_ES2_IT0_EEE5valueEvE4typeERSt4pairIS3_S5_ESC_, symObjAddr: 0x3600, symBinAddr: 0x100003F6C, symSize: 0x28 }
  - { offsetInCU: 0x10056, offset: 0x10056, size: 0x8, addend: 0x0, symName: __ZSt10_ConstructISt4pairIciEJRS0_IKciEEEvPT_DpOT0_, symObjAddr: 0x33D8, symBinAddr: 0x100003D44, symSize: 0x4C }
  - { offsetInCU: 0x1005E, offset: 0x1005E, size: 0x8, addend: 0x0, symName: __ZSt13__adjust_heapIN9__gnu_cxx17__normal_iteratorIPSt4pairIciESt6vectorIS3_SaIS3_EEEElS3_NS0_5__ops15_Iter_comp_iterIPFbRS3_SB_EEEEvT_T0_SG_T1_T2_, symObjAddr: 0x3424, symBinAddr: 0x100003D90, symSize: 0x1DC }
  - { offsetInCU: 0x10047, offset: 0x10047, size: 0x8, addend: 0x0, symName: __ZNKSt8__detail14_Node_iteratorISt4pairIKciELb0ELb0EEdeEv, symObjAddr: 0x33B4, symBinAddr: 0x100003D20, symSize: 0x24 }
  - { offsetInCU: 0x1004F, offset: 0x1004F, size: 0x8, addend: 0x0, symName: __ZSt10_ConstructISt4pairIciEJRS0_IKciEEEvPT_DpOT0_, symObjAddr: 0x33D8, symBinAddr: 0x100003D44, symSize: 0x4C }
  - { offsetInCU: 0x100C3, offset: 0x100C3, size: 0x8, addend: 0x0, symName: __ZSt11__addressofISt4pairIciEEPT_RS2_, symObjAddr: 0x33A0, symBinAddr: 0x100003D0C, symSize: 0x14 }
  - { offsetInCU: 0x100CB, offset: 0x100CB, size: 0x8, addend: 0x0, symName: __ZNKSt8__detail14_Node_iteratorISt4pairIKciELb0ELb0EEdeEv, symObjAddr: 0x33B4, symBinAddr: 0x100003D20, symSize: 0x24 }
  - { offsetInCU: 0x100C0, offset: 0x100C0, size: 0x8, addend: 0x0, symName: __ZNSt8__detail16_Hashtable_allocISaINS_10_Hash_nodeISt4pairIKciELb0EEEEE19_M_allocate_bucketsEm, symObjAddr: 0x32E8, symBinAddr: 0x100003C54, symSize: 0xB8 }
  - { offsetInCU: 0x100C8, offset: 0x100C8, size: 0x8, addend: 0x0, symName: __ZSt11__addressofISt4pairIciEEPT_RS2_, symObjAddr: 0x33A0, symBinAddr: 0x100003D0C, symSize: 0x14 }
  - { offsetInCU: 0x102B3, offset: 0x102B3, size: 0x8, addend: 0x0, symName: __ZNSt4pairIKciEC1IJRS0_EJEEESt21piecewise_construct_tSt5tupleIJDpT_EES5_IJDpT0_EE, symObjAddr: 0x32AC, symBinAddr: 0x100003C18, symSize: 0x3C }
  - { offsetInCU: 0x102BB, offset: 0x102BB, size: 0x8, addend: 0x0, symName: __ZNSt8__detail16_Hashtable_allocISaINS_10_Hash_nodeISt4pairIKciELb0EEEEE19_M_allocate_bucketsEm, symObjAddr: 0x32E8, symBinAddr: 0x100003C54, symSize: 0xB8 }
  - { offsetInCU: 0x10317, offset: 0x10317, size: 0x8, addend: 0x0, symName: __ZNSt11_Tuple_implILm0EJRKcEEC2EOS2_, symObjAddr: 0x3284, symBinAddr: 0x100003BF0, symSize: 0x28 }
  - { offsetInCU: 0x1031F, offset: 0x1031F, size: 0x8, addend: 0x0, symName: __ZNSt4pairIKciEC1IJRS0_EJEEESt21piecewise_construct_tSt5tupleIJDpT_EES5_IJDpT0_EE, symObjAddr: 0x32AC, symBinAddr: 0x100003C18, symSize: 0x3C }
  - { offsetInCU: 0x10345, offset: 0x10345, size: 0x8, addend: 0x0, symName: __ZNKSt8equal_toIcEclERKcS2_, symObjAddr: 0x3250, symBinAddr: 0x100003BBC, symSize: 0x34 }
  - { offsetInCU: 0x1034D, offset: 0x1034D, size: 0x8, addend: 0x0, symName: __ZNSt11_Tuple_implILm0EJRKcEEC2EOS2_, symObjAddr: 0x3284, symBinAddr: 0x100003BF0, symSize: 0x28 }
  - { offsetInCU: 0x103AF, offset: 0x103AF, size: 0x8, addend: 0x0, symName: __ZNKSt8__detail10_Select1stclIRKSt4pairIKciEEEONS0_10__1st_typeIT_E4typeEOS8_, symObjAddr: 0x3230, symBinAddr: 0x100003B9C, symSize: 0x20 }
  - { offsetInCU: 0x103B7, offset: 0x103B7, size: 0x8, addend: 0x0, symName: __ZNKSt8equal_toIcEclERKcS2_, symObjAddr: 0x3250, symBinAddr: 0x100003BBC, symSize: 0x34 }
  - { offsetInCU: 0x103FE, offset: 0x103FE, size: 0x8, addend: 0x0, symName: __ZNKSt8__detail21_Hash_node_value_baseISt4pairIKciEE4_M_vEv, symObjAddr: 0x3214, symBinAddr: 0x100003B80, symSize: 0x1C }
  - { offsetInCU: 0x10406, offset: 0x10406, size: 0x8, addend: 0x0, symName: __ZNKSt8__detail10_Select1stclIRKSt4pairIKciEEEONS0_10__1st_typeIT_E4typeEOS8_, symObjAddr: 0x3230, symBinAddr: 0x100003B9C, symSize: 0x20 }
  - { offsetInCU: 0x1042D, offset: 0x1042D, size: 0x8, addend: 0x0, symName: __ZNKSt8__detail15_Hashtable_baseIcSt4pairIKciENS_10_Select1stESt8equal_toIcESt4hashIcENS_18_Mod_range_hashingENS_20_Default_ranged_hashENS_17_Hashtable_traitsILb0ELb0ELb1EEEE5_M_eqEv, symObjAddr: 0x31F8, symBinAddr: 0x100003B64, symSize: 0x1C }
  - { offsetInCU: 0x10435, offset: 0x10435, size: 0x8, addend: 0x0, symName: __ZNKSt8__detail21_Hash_node_value_baseISt4pairIKciEE4_M_vEv, symObjAddr: 0x3214, symBinAddr: 0x100003B80, symSize: 0x1C }
  - { offsetInCU: 0x104C7, offset: 0x104C7, size: 0x8, addend: 0x0, symName: __ZSt11__addressofIPNSt8__detail15_Hash_node_baseEEPT_RS3_, symObjAddr: 0x31E4, symBinAddr: 0x100003B50, symSize: 0x14 }
  - { offsetInCU: 0x104CF, offset: 0x104CF, size: 0x8, addend: 0x0, symName: __ZNKSt8__detail15_Hashtable_baseIcSt4pairIKciENS_10_Select1stESt8equal_toIcESt4hashIcENS_18_Mod_range_hashingENS_20_Default_ranged_hashENS_17_Hashtable_traitsILb0ELb0ELb1EEEE5_M_eqEv, symObjAddr: 0x31F8, symBinAddr: 0x100003B64, symSize: 0x1C }
  - { offsetInCU: 0x10536, offset: 0x10536, size: 0x8, addend: 0x0, symName: __ZSt9addressofINSt8__detail10_Hash_nodeISt4pairIKciELb0EEEEPT_RS6_, symObjAddr: 0x31C8, symBinAddr: 0x100003B34, symSize: 0x1C }
  - { offsetInCU: 0x1053E, offset: 0x1053E, size: 0x8, addend: 0x0, symName: __ZSt11__addressofIPNSt8__detail15_Hash_node_baseEEPT_RS3_, symObjAddr: 0x31E4, symBinAddr: 0x100003B50, symSize: 0x14 }
  - { offsetInCU: 0x104F0, offset: 0x104F0, size: 0x8, addend: 0x0, symName: __ZN9__gnu_cxx5__ops14_Val_comp_iterIPFbRSt4pairIciES4_EEclIS3_NS_17__normal_iteratorIPS3_St6vectorIS3_SaIS3_EEEEEEbRT_T0_, symObjAddr: 0x3184, symBinAddr: 0x100003AF0, symSize: 0x44 }
  - { offsetInCU: 0x104F8, offset: 0x104F8, size: 0x8, addend: 0x0, symName: __ZSt9addressofINSt8__detail10_Hash_nodeISt4pairIKciELb0EEEEPT_RS6_, symObjAddr: 0x31C8, symBinAddr: 0x100003B34, symSize: 0x1C }
  - { offsetInCU: 0x105E0, offset: 0x105E0, size: 0x8, addend: 0x0, symName: __ZN9__gnu_cxx5__ops14_Val_comp_iterIPFbRSt4pairIciES4_EEC1EONS0_15_Iter_comp_iterIS6_EE, symObjAddr: 0x3154, symBinAddr: 0x100003AC0, symSize: 0x30 }
  - { offsetInCU: 0x105E8, offset: 0x105E8, size: 0x8, addend: 0x0, symName: __ZN9__gnu_cxx5__ops14_Val_comp_iterIPFbRSt4pairIciES4_EEclIS3_NS_17__normal_iteratorIPS3_St6vectorIS3_SaIS3_EEEEEEbRT_T0_, symObjAddr: 0x3184, symBinAddr: 0x100003AF0, symSize: 0x44 }
  - { offsetInCU: 0x10690, offset: 0x10690, size: 0x8, addend: 0x0, symName: __ZSt4moveIRN9__gnu_cxx5__ops15_Iter_comp_iterIPFbRSt4pairIciES5_EEEEONSt16remove_referenceIT_E4typeEOSB_, symObjAddr: 0x3140, symBinAddr: 0x100003AAC, symSize: 0x14 }
  - { offsetInCU: 0x10698, offset: 0x10698, size: 0x8, addend: 0x0, symName: __ZN9__gnu_cxx5__ops14_Val_comp_iterIPFbRSt4pairIciES4_EEC1EONS0_15_Iter_comp_iterIS6_EE, symObjAddr: 0x3154, symBinAddr: 0x100003AC0, symSize: 0x30 }
  - { offsetInCU: 0x10666, offset: 0x10666, size: 0x8, addend: 0x0, symName: __ZSt7forwardIcEOT_RNSt16remove_referenceIS0_E4typeE, symObjAddr: 0x312C, symBinAddr: 0x100003A98, symSize: 0x14 }
  - { offsetInCU: 0x1066E, offset: 0x1066E, size: 0x8, addend: 0x0, symName: __ZSt4moveIRN9__gnu_cxx5__ops15_Iter_comp_iterIPFbRSt4pairIciES5_EEEEONSt16remove_referenceIT_E4typeEOSB_, symObjAddr: 0x3140, symBinAddr: 0x100003AAC, symSize: 0x14 }
  - { offsetInCU: 0x107BF, offset: 0x107BF, size: 0x8, addend: 0x0, symName: __ZSt22__copy_move_backward_aILb1EN9__gnu_cxx17__normal_iteratorIPSt4pairIciESt6vectorIS3_SaIS3_EEEES8_ET1_T0_SA_S9_, symObjAddr: 0x30CC, symBinAddr: 0x100003A38, symSize: 0x60 }
  - { offsetInCU: 0x107C7, offset: 0x107C7, size: 0x8, addend: 0x0, symName: __ZSt7forwardIcEOT_RNSt16remove_referenceIS0_E4typeE, symObjAddr: 0x312C, symBinAddr: 0x100003A98, symSize: 0x14 }
  - { offsetInCU: 0x107CC, offset: 0x107CC, size: 0x8, addend: 0x0, symName: __ZSt12__miter_baseIN9__gnu_cxx17__normal_iteratorIPSt4pairIciESt6vectorIS3_SaIS3_EEEEET_S9_, symObjAddr: 0x30B8, symBinAddr: 0x100003A24, symSize: 0x14 }
  - { offsetInCU: 0x107D4, offset: 0x107D4, size: 0x8, addend: 0x0, symName: __ZSt22__copy_move_backward_aILb1EN9__gnu_cxx17__normal_iteratorIPSt4pairIciESt6vectorIS3_SaIS3_EEEES8_ET1_T0_SA_S9_, symObjAddr: 0x30CC, symBinAddr: 0x100003A38, symSize: 0x60 }
  - { offsetInCU: 0x1086A, offset: 0x1086A, size: 0x8, addend: 0x0, symName: __ZSt9iter_swapIN9__gnu_cxx17__normal_iteratorIPSt4pairIciESt6vectorIS3_SaIS3_EEEES8_EvT_T0_, symObjAddr: 0x3074, symBinAddr: 0x1000039E0, symSize: 0x44 }
  - { offsetInCU: 0x10872, offset: 0x10872, size: 0x8, addend: 0x0, symName: __ZSt12__miter_baseIN9__gnu_cxx17__normal_iteratorIPSt4pairIciESt6vectorIS3_SaIS3_EEEEET_S9_, symObjAddr: 0x30B8, symBinAddr: 0x100003A24, symSize: 0x14 }
  - { offsetInCU: 0x107B1, offset: 0x107B1, size: 0x8, addend: 0x0, symName: __ZN9__gnu_cxx17__normal_iteratorIPSt4pairIciESt6vectorIS2_SaIS2_EEEmmEv, symObjAddr: 0x304C, symBinAddr: 0x1000039B8, symSize: 0x28 }
  - { offsetInCU: 0x107B9, offset: 0x107B9, size: 0x8, addend: 0x0, symName: __ZSt9iter_swapIN9__gnu_cxx17__normal_iteratorIPSt4pairIciESt6vectorIS3_SaIS3_EEEES8_EvT_T0_, symObjAddr: 0x3074, symBinAddr: 0x1000039E0, symSize: 0x44 }
  - { offsetInCU: 0x1092C, offset: 0x1092C, size: 0x8, addend: 0x0, symName: __ZSt10__pop_heapIN9__gnu_cxx17__normal_iteratorIPSt4pairIciESt6vectorIS3_SaIS3_EEEENS0_5__ops15_Iter_comp_iterIPFbRS3_SB_EEEEvT_SF_SF_RT0_, symObjAddr: 0x2FB4, symBinAddr: 0x100003920, symSize: 0x98 }
  - { offsetInCU: 0x10934, offset: 0x10934, size: 0x8, addend: 0x0, symName: __ZN9__gnu_cxx17__normal_iteratorIPSt4pairIciESt6vectorIS2_SaIS2_EEEmmEv, symObjAddr: 0x304C, symBinAddr: 0x1000039B8, symSize: 0x28 }
  - { offsetInCU: 0x10942, offset: 0x10942, size: 0x8, addend: 0x0, symName: __ZN9__gnu_cxxltIPSt4pairIciESt6vectorIS2_SaIS2_EEEEbRKNS_17__normal_iteratorIT_T0_EESC_, symObjAddr: 0x2F70, symBinAddr: 0x1000038DC, symSize: 0x44 }
  - { offsetInCU: 0x1094A, offset: 0x1094A, size: 0x8, addend: 0x0, symName: __ZSt10__pop_heapIN9__gnu_cxx17__normal_iteratorIPSt4pairIciESt6vectorIS3_SaIS3_EEEENS0_5__ops15_Iter_comp_iterIPFbRS3_SB_EEEEvT_SF_SF_RT0_, symObjAddr: 0x2FB4, symBinAddr: 0x100003920, symSize: 0x98 }
  - { offsetInCU: 0x10A61, offset: 0x10A61, size: 0x8, addend: 0x0, symName: __ZSt11__make_heapIN9__gnu_cxx17__normal_iteratorIPSt4pairIciESt6vectorIS3_SaIS3_EEEENS0_5__ops15_Iter_comp_iterIPFbRS3_SB_EEEEvT_SF_RT0_, symObjAddr: 0x2E94, symBinAddr: 0x100003800, symSize: 0xDC }
  - { offsetInCU: 0x10A69, offset: 0x10A69, size: 0x8, addend: 0x0, symName: __ZN9__gnu_cxxltIPSt4pairIciESt6vectorIS2_SaIS2_EEEEbRKNS_17__normal_iteratorIT_T0_EESC_, symObjAddr: 0x2F70, symBinAddr: 0x1000038DC, symSize: 0x44 }
  - { offsetInCU: 0x10ADB, offset: 0x10ADB, size: 0x8, addend: 0x0, symName: __ZSt16__do_uninit_copyINSt8__detail14_Node_iteratorISt4pairIKciELb0ELb0EEEPS2_IciEET0_T_S9_S8_, symObjAddr: 0x2DE8, symBinAddr: 0x100003754, symSize: 0xAC }
  - { offsetInCU: 0x10AE3, offset: 0x10AE3, size: 0x8, addend: 0x0, symName: __ZSt11__make_heapIN9__gnu_cxx17__normal_iteratorIPSt4pairIciESt6vectorIS3_SaIS3_EEEENS0_5__ops15_Iter_comp_iterIPFbRS3_SB_EEEEvT_SF_RT0_, symObjAddr: 0x2E94, symBinAddr: 0x100003800, symSize: 0xDC }
  - { offsetInCU: 0x10AC9, offset: 0x10AC9, size: 0x8, addend: 0x0, symName: __ZNSt8__detail19_Node_iterator_baseISt4pairIKciELb0EE7_M_incrEv, symObjAddr: 0x2DB8, symBinAddr: 0x100003724, symSize: 0x30 }
  - { offsetInCU: 0x10AD1, offset: 0x10AD1, size: 0x8, addend: 0x0, symName: __ZSt16__do_uninit_copyINSt8__detail14_Node_iteratorISt4pairIKciELb0ELb0EEEPS2_IciEET0_T_S9_S8_, symObjAddr: 0x2DE8, symBinAddr: 0x100003754, symSize: 0xAC }
  - { offsetInCU: 0x10AF8, offset: 0x10AF8, size: 0x8, addend: 0x0, symName: __ZNSt10_HashtableIcSt4pairIKciESaIS2_ENSt8__detail10_Select1stESt8equal_toIcESt4hashIcENS4_18_Mod_range_hashingENS4_20_Default_ranged_hashENS4_20_Prime_rehash_policyENS4_17_Hashtable_traitsILb0ELb0ELb1EEEE19_M_allocate_bucketsEm, symObjAddr: 0x2D60, symBinAddr: 0x1000036CC, symSize: 0x58 }
  - { offsetInCU: 0x10B00, offset: 0x10B00, size: 0x8, addend: 0x0, symName: __ZNSt8__detail19_Node_iterator_baseISt4pairIKciELb0EE7_M_incrEv, symObjAddr: 0x2DB8, symBinAddr: 0x100003724, symSize: 0x30 }
  - { offsetInCU: 0x10B3B, offset: 0x10B3B, size: 0x8, addend: 0x0, symName: __ZNSt15__new_allocatorINSt8__detail10_Hash_nodeISt4pairIKciELb0EEEE10deallocateEPS5_m, symObjAddr: 0x2D30, symBinAddr: 0x10000369C, symSize: 0x30 }
  - { offsetInCU: 0x10B43, offset: 0x10B43, size: 0x8, addend: 0x0, symName: __ZNSt10_HashtableIcSt4pairIKciESaIS2_ENSt8__detail10_Select1stESt8equal_toIcESt4hashIcENS4_18_Mod_range_hashingENS4_20_Default_ranged_hashENS4_20_Prime_rehash_policyENS4_17_Hashtable_traitsILb0ELb0ELb1EEEE19_M_allocate_bucketsEm, symObjAddr: 0x2D60, symBinAddr: 0x1000036CC, symSize: 0x58 }
  - { offsetInCU: 0x10C57, offset: 0x10C57, size: 0x8, addend: 0x0, symName: __ZNSt5tupleIJRKcEEC1EOS2_, symObjAddr: 0x2D08, symBinAddr: 0x100003674, symSize: 0x28 }
  - { offsetInCU: 0x10C5F, offset: 0x10C5F, size: 0x8, addend: 0x0, symName: __ZNSt15__new_allocatorINSt8__detail10_Hash_nodeISt4pairIKciELb0EEEE10deallocateEPS5_m, symObjAddr: 0x2D30, symBinAddr: 0x10000369C, symSize: 0x30 }
  - { offsetInCU: 0x10C77, offset: 0x10C77, size: 0x8, addend: 0x0, symName: __ZNSt15__new_allocatorINSt8__detail10_Hash_nodeISt4pairIKciELb0EEEE8allocateEmPKv, symObjAddr: 0x2C8C, symBinAddr: 0x1000035F8, symSize: 0x7C }
  - { offsetInCU: 0x10C7F, offset: 0x10C7F, size: 0x8, addend: 0x0, symName: __ZNSt5tupleIJRKcEEC1EOS2_, symObjAddr: 0x2D08, symBinAddr: 0x100003674, symSize: 0x28 }
  - { offsetInCU: 0x10D02, offset: 0x10D02, size: 0x8, addend: 0x0, symName: __ZN9__gnu_cxx16__aligned_bufferISt4pairIKciEE7_M_addrEv, symObjAddr: 0x2C78, symBinAddr: 0x1000035E4, symSize: 0x14 }
  - { offsetInCU: 0x10D0A, offset: 0x10D0A, size: 0x8, addend: 0x0, symName: __ZNSt15__new_allocatorINSt8__detail10_Hash_nodeISt4pairIKciELb0EEEE8allocateEmPKv, symObjAddr: 0x2C8C, symBinAddr: 0x1000035F8, symSize: 0x7C }
  - { offsetInCU: 0x10D34, offset: 0x10D34, size: 0x8, addend: 0x0, symName: __ZNKSt8__detail15_Hash_code_baseIcSt4pairIKciENS_10_Select1stESt4hashIcENS_18_Mod_range_hashingENS_20_Default_ranged_hashELb0EE15_M_bucket_indexERKNS_16_Hash_node_valueIS3_Lb0EEEm, symObjAddr: 0x2C2C, symBinAddr: 0x100003598, symSize: 0x4C }
  - { offsetInCU: 0x10D3C, offset: 0x10D3C, size: 0x8, addend: 0x0, symName: __ZN9__gnu_cxx16__aligned_bufferISt4pairIKciEE7_M_addrEv, symObjAddr: 0x2C78, symBinAddr: 0x1000035E4, symSize: 0x14 }
  - { offsetInCU: 0x10D8B, offset: 0x10D8B, size: 0x8, addend: 0x0, symName: __ZNKSt8__detail15_Hashtable_baseIcSt4pairIKciENS_10_Select1stESt8equal_toIcESt4hashIcENS_18_Mod_range_hashingENS_20_Default_ranged_hashENS_17_Hashtable_traitsILb0ELb0ELb1EEEE13_M_key_equalsERS2_RKNS_16_Hash_node_valueIS3_Lb0EEE, symObjAddr: 0x2BD4, symBinAddr: 0x100003540, symSize: 0x58 }
  - { offsetInCU: 0x10D93, offset: 0x10D93, size: 0x8, addend: 0x0, symName: __ZNKSt8__detail15_Hash_code_baseIcSt4pairIKciENS_10_Select1stESt4hashIcENS_18_Mod_range_hashingENS_20_Default_ranged_hashELb0EE15_M_bucket_indexERKNS_16_Hash_node_valueIS3_Lb0EEEm, symObjAddr: 0x2C2C, symBinAddr: 0x100003598, symSize: 0x4C }
  - { offsetInCU: 0x10DE2, offset: 0x10DE2, size: 0x8, addend: 0x0, symName: __ZNSt8__detail15_Hashtable_baseIcSt4pairIKciENS_10_Select1stESt8equal_toIcESt4hashIcENS_18_Mod_range_hashingENS_20_Default_ranged_hashENS_17_Hashtable_traitsILb0ELb0ELb1EEEE9_S_equalsEmRKNS_21_Hash_node_code_cacheILb0EEE, symObjAddr: 0x2BBC, symBinAddr: 0x100003528, symSize: 0x18 }
  - { offsetInCU: 0x10DEA, offset: 0x10DEA, size: 0x8, addend: 0x0, symName: __ZNKSt8__detail15_Hashtable_baseIcSt4pairIKciENS_10_Select1stESt8equal_toIcESt4hashIcENS_18_Mod_range_hashingENS_20_Default_ranged_hashENS_17_Hashtable_traitsILb0ELb0ELb1EEEE13_M_key_equalsERS2_RKNS_16_Hash_node_valueIS3_Lb0EEE, symObjAddr: 0x2BD4, symBinAddr: 0x100003540, symSize: 0x58 }
  - { offsetInCU: 0x10E18, offset: 0x10E18, size: 0x8, addend: 0x0, symName: __ZNSt15__new_allocatorIPNSt8__detail15_Hash_node_baseEE10deallocateEPS2_m, symObjAddr: 0x2B8C, symBinAddr: 0x1000034F8, symSize: 0x30 }
  - { offsetInCU: 0x10E20, offset: 0x10E20, size: 0x8, addend: 0x0, symName: __ZNSt8__detail15_Hashtable_baseIcSt4pairIKciENS_10_Select1stESt8equal_toIcESt4hashIcENS_18_Mod_range_hashingENS_20_Default_ranged_hashENS_17_Hashtable_traitsILb0ELb0ELb1EEEE9_S_equalsEmRKNS_21_Hash_node_code_cacheILb0EEE, symObjAddr: 0x2BBC, symBinAddr: 0x100003528, symSize: 0x18 }
  - { offsetInCU: 0x10ED0, offset: 0x10ED0, size: 0x8, addend: 0x0, symName: __ZNSt15__new_allocatorIPNSt8__detail15_Hash_node_baseEED2Ev, symObjAddr: 0x2B78, symBinAddr: 0x1000034E4, symSize: 0x14 }
  - { offsetInCU: 0x10ED8, offset: 0x10ED8, size: 0x8, addend: 0x0, symName: __ZNSt15__new_allocatorIPNSt8__detail15_Hash_node_baseEE10deallocateEPS2_m, symObjAddr: 0x2B8C, symBinAddr: 0x1000034F8, symSize: 0x30 }
  - { offsetInCU: 0x10F41, offset: 0x10F41, size: 0x8, addend: 0x0, symName: __ZSt9addressofIPNSt8__detail15_Hash_node_baseEEPT_RS3_, symObjAddr: 0x2B5C, symBinAddr: 0x1000034C8, symSize: 0x1C }
  - { offsetInCU: 0x10F49, offset: 0x10F49, size: 0x8, addend: 0x0, symName: __ZNSt15__new_allocatorIPNSt8__detail15_Hash_node_baseEED2Ev, symObjAddr: 0x2B78, symBinAddr: 0x1000034E4, symSize: 0x14 }
  - { offsetInCU: 0x10F25, offset: 0x10F25, size: 0x8, addend: 0x0, symName: __ZNSt19__ptr_traits_ptr_toIPNSt8__detail10_Hash_nodeISt4pairIKciELb0EEES5_Lb0EE10pointer_toERS5_, symObjAddr: 0x2B40, symBinAddr: 0x1000034AC, symSize: 0x1C }
  - { offsetInCU: 0x10F2D, offset: 0x10F2D, size: 0x8, addend: 0x0, symName: __ZSt9addressofIPNSt8__detail15_Hash_node_baseEEPT_RS3_, symObjAddr: 0x2B5C, symBinAddr: 0x1000034C8, symSize: 0x1C }
  - { offsetInCU: 0x10F8C, offset: 0x10F8C, size: 0x8, addend: 0x0, symName: __ZNSt8__detail21_Hashtable_ebo_helperILi0ESaINS_10_Hash_nodeISt4pairIKciELb0EEEELb1EE6_M_getEv, symObjAddr: 0x2B2C, symBinAddr: 0x100003498, symSize: 0x14 }
  - { offsetInCU: 0x10F94, offset: 0x10F94, size: 0x8, addend: 0x0, symName: __ZNSt19__ptr_traits_ptr_toIPNSt8__detail10_Hash_nodeISt4pairIKciELb0EEES5_Lb0EE10pointer_toERS5_, symObjAddr: 0x2B40, symBinAddr: 0x1000034AC, symSize: 0x1C }
  - { offsetInCU: 0x1111D, offset: 0x1111D, size: 0x8, addend: 0x0, symName: __ZSt25__unguarded_linear_insertIN9__gnu_cxx17__normal_iteratorIPSt4pairIciESt6vectorIS3_SaIS3_EEEENS0_5__ops14_Val_comp_iterIPFbRS3_SB_EEEEvT_T0_, symObjAddr: 0x2A74, symBinAddr: 0x1000033E0, symSize: 0xB8 }
  - { offsetInCU: 0x11125, offset: 0x11125, size: 0x8, addend: 0x0, symName: __ZNSt8__detail21_Hashtable_ebo_helperILi0ESaINS_10_Hash_nodeISt4pairIKciELb0EEEELb1EE6_M_getEv, symObjAddr: 0x2B2C, symBinAddr: 0x100003498, symSize: 0x14 }
  - { offsetInCU: 0x11103, offset: 0x11103, size: 0x8, addend: 0x0, symName: __ZN9__gnu_cxx5__ops15__val_comp_iterIPFbRSt4pairIciES4_EEENS0_14_Val_comp_iterIT_EENS0_15_Iter_comp_iterIS8_EE, symObjAddr: 0x2A48, symBinAddr: 0x1000033B4, symSize: 0x2C }
  - { offsetInCU: 0x1110B, offset: 0x1110B, size: 0x8, addend: 0x0, symName: __ZSt25__unguarded_linear_insertIN9__gnu_cxx17__normal_iteratorIPSt4pairIciESt6vectorIS3_SaIS3_EEEENS0_5__ops14_Val_comp_iterIPFbRS3_SB_EEEEvT_T0_, symObjAddr: 0x2A74, symBinAddr: 0x1000033E0, symSize: 0xB8 }
  - { offsetInCU: 0x11092, offset: 0x11092, size: 0x8, addend: 0x0, symName: __ZNSt4pairIciEaSEOS0_, symObjAddr: 0x2A00, symBinAddr: 0x10000336C, symSize: 0x48 }
  - { offsetInCU: 0x1109A, offset: 0x1109A, size: 0x8, addend: 0x0, symName: __ZN9__gnu_cxx5__ops15__val_comp_iterIPFbRSt4pairIciES4_EEENS0_14_Val_comp_iterIT_EENS0_15_Iter_comp_iterIS8_EE, symObjAddr: 0x2A48, symBinAddr: 0x1000033B4, symSize: 0x2C }
  - { offsetInCU: 0x11203, offset: 0x11203, size: 0x8, addend: 0x0, symName: __ZSt13move_backwardIN9__gnu_cxx17__normal_iteratorIPSt4pairIciESt6vectorIS3_SaIS3_EEEES8_ET0_T_SA_S9_, symObjAddr: 0x29B8, symBinAddr: 0x100003324, symSize: 0x48 }
  - { offsetInCU: 0x1120B, offset: 0x1120B, size: 0x8, addend: 0x0, symName: __ZNSt4pairIciEaSEOS0_, symObjAddr: 0x2A00, symBinAddr: 0x10000336C, symSize: 0x48 }
  - { offsetInCU: 0x111B2, offset: 0x111B2, size: 0x8, addend: 0x0, symName: __ZSt4moveIRSt4pairIciEEONSt16remove_referenceIT_E4typeEOS4_, symObjAddr: 0x29A4, symBinAddr: 0x100003310, symSize: 0x14 }
  - { offsetInCU: 0x111BA, offset: 0x111BA, size: 0x8, addend: 0x0, symName: __ZSt13move_backwardIN9__gnu_cxx17__normal_iteratorIPSt4pairIciESt6vectorIS3_SaIS3_EEEES8_ET0_T_SA_S9_, symObjAddr: 0x29B8, symBinAddr: 0x100003324, symSize: 0x48 }
  - { offsetInCU: 0x111AA, offset: 0x111AA, size: 0x8, addend: 0x0, symName: __ZN9__gnu_cxx5__ops15_Iter_comp_iterIPFbRSt4pairIciES4_EEclINS_17__normal_iteratorIPS3_St6vectorIS3_SaIS3_EEEESE_EEbT_T0_, symObjAddr: 0x2954, symBinAddr: 0x1000032C0, symSize: 0x50 }
  - { offsetInCU: 0x111B2, offset: 0x111B2, size: 0x8, addend: 0x0, symName: __ZSt4moveIRSt4pairIciEEONSt16remove_referenceIT_E4typeEOS4_, symObjAddr: 0x29A4, symBinAddr: 0x100003310, symSize: 0x14 }
  - { offsetInCU: 0x112BD, offset: 0x112BD, size: 0x8, addend: 0x0, symName: __ZN9__gnu_cxxeqIPSt4pairIciESt6vectorIS2_SaIS2_EEEEbRKNS_17__normal_iteratorIT_T0_EESC_, symObjAddr: 0x2910, symBinAddr: 0x10000327C, symSize: 0x44 }
  - { offsetInCU: 0x112C5, offset: 0x112C5, size: 0x8, addend: 0x0, symName: __ZN9__gnu_cxx5__ops15_Iter_comp_iterIPFbRSt4pairIciES4_EEclINS_17__normal_iteratorIPS3_St6vectorIS3_SaIS3_EEEESE_EEbT_T0_, symObjAddr: 0x2954, symBinAddr: 0x1000032C0, symSize: 0x50 }
  - { offsetInCU: 0x113EE, offset: 0x113EE, size: 0x8, addend: 0x0, symName: __ZSt21__unguarded_partitionIN9__gnu_cxx17__normal_iteratorIPSt4pairIciESt6vectorIS3_SaIS3_EEEENS0_5__ops15_Iter_comp_iterIPFbRS3_SB_EEEET_SF_SF_SF_T0_, symObjAddr: 0x284C, symBinAddr: 0x1000031B8, symSize: 0xC4 }
  - { offsetInCU: 0x113F6, offset: 0x113F6, size: 0x8, addend: 0x0, symName: __ZN9__gnu_cxxeqIPSt4pairIciESt6vectorIS2_SaIS2_EEEEbRKNS_17__normal_iteratorIT_T0_EESC_, symObjAddr: 0x2910, symBinAddr: 0x10000327C, symSize: 0x44 }
  - { offsetInCU: 0x11481, offset: 0x11481, size: 0x8, addend: 0x0, symName: __ZSt22__move_median_to_firstIN9__gnu_cxx17__normal_iteratorIPSt4pairIciESt6vectorIS3_SaIS3_EEEENS0_5__ops15_Iter_comp_iterIPFbRS3_SB_EEEEvT_SF_SF_SF_T0_, symObjAddr: 0x2728, symBinAddr: 0x100003094, symSize: 0x124 }
  - { offsetInCU: 0x11489, offset: 0x11489, size: 0x8, addend: 0x0, symName: __ZSt21__unguarded_partitionIN9__gnu_cxx17__normal_iteratorIPSt4pairIciESt6vectorIS3_SaIS3_EEEENS0_5__ops15_Iter_comp_iterIPFbRS3_SB_EEEET_SF_SF_SF_T0_, symObjAddr: 0x284C, symBinAddr: 0x1000031B8, symSize: 0xC4 }
  - { offsetInCU: 0x113B6, offset: 0x113B6, size: 0x8, addend: 0x0, symName: __ZNK9__gnu_cxx17__normal_iteratorIPSt4pairIciESt6vectorIS2_SaIS2_EEEmiEl, symObjAddr: 0x26E4, symBinAddr: 0x100003050, symSize: 0x44 }
  - { offsetInCU: 0x113BE, offset: 0x113BE, size: 0x8, addend: 0x0, symName: __ZSt22__move_median_to_firstIN9__gnu_cxx17__normal_iteratorIPSt4pairIciESt6vectorIS3_SaIS3_EEEENS0_5__ops15_Iter_comp_iterIPFbRS3_SB_EEEEvT_SF_SF_SF_T0_, symObjAddr: 0x2728, symBinAddr: 0x100003094, symSize: 0x124 }
  - { offsetInCU: 0x11545, offset: 0x11545, size: 0x8, addend: 0x0, symName: __ZSt11__sort_heapIN9__gnu_cxx17__normal_iteratorIPSt4pairIciESt6vectorIS3_SaIS3_EEEENS0_5__ops15_Iter_comp_iterIPFbRS3_SB_EEEEvT_SF_RT0_, symObjAddr: 0x267C, symBinAddr: 0x100002FE8, symSize: 0x68 }
  - { offsetInCU: 0x1154D, offset: 0x1154D, size: 0x8, addend: 0x0, symName: __ZNK9__gnu_cxx17__normal_iteratorIPSt4pairIciESt6vectorIS2_SaIS2_EEEmiEl, symObjAddr: 0x26E4, symBinAddr: 0x100003050, symSize: 0x44 }
  - { offsetInCU: 0x115C4, offset: 0x115C4, size: 0x8, addend: 0x0, symName: __ZSt13__heap_selectIN9__gnu_cxx17__normal_iteratorIPSt4pairIciESt6vectorIS3_SaIS3_EEEENS0_5__ops15_Iter_comp_iterIPFbRS3_SB_EEEEvT_SF_SF_T0_, symObjAddr: 0x25D8, symBinAddr: 0x100002F44, symSize: 0xA4 }
  - { offsetInCU: 0x115CC, offset: 0x115CC, size: 0x8, addend: 0x0, symName: __ZSt11__sort_heapIN9__gnu_cxx17__normal_iteratorIPSt4pairIciESt6vectorIS3_SaIS3_EEEENS0_5__ops15_Iter_comp_iterIPFbRS3_SB_EEEEvT_SF_RT0_, symObjAddr: 0x267C, symBinAddr: 0x100002FE8, symSize: 0x68 }
  - { offsetInCU: 0x11564, offset: 0x11564, size: 0x8, addend: 0x0, symName: __ZSt13__countl_zeroImEiT_, symObjAddr: 0x2584, symBinAddr: 0x100002EF0, symSize: 0x54 }
  - { offsetInCU: 0x1156C, offset: 0x1156C, size: 0x8, addend: 0x0, symName: __ZSt13__heap_selectIN9__gnu_cxx17__normal_iteratorIPSt4pairIciESt6vectorIS3_SaIS3_EEEENS0_5__ops15_Iter_comp_iterIPFbRS3_SB_EEEEvT_SF_SF_T0_, symObjAddr: 0x25D8, symBinAddr: 0x100002F44, symSize: 0xA4 }
  - { offsetInCU: 0x115E0, offset: 0x115E0, size: 0x8, addend: 0x0, symName: __ZNSt20__uninitialized_copyILb0EE13__uninit_copyINSt8__detail14_Node_iteratorISt4pairIKciELb0ELb0EEEPS4_IciEEET0_T_SB_SA_, symObjAddr: 0x2558, symBinAddr: 0x100002EC4, symSize: 0x2C }
  - { offsetInCU: 0x115E8, offset: 0x115E8, size: 0x8, addend: 0x0, symName: __ZSt13__countl_zeroImEiT_, symObjAddr: 0x2584, symBinAddr: 0x100002EF0, symSize: 0x54 }
  - { offsetInCU: 0x11651, offset: 0x11651, size: 0x8, addend: 0x0, symName: __ZNSt15__new_allocatorISt4pairIciEE8allocateEmPKv, symObjAddr: 0x24DC, symBinAddr: 0x100002E48, symSize: 0x7C }
  - { offsetInCU: 0x11659, offset: 0x11659, size: 0x8, addend: 0x0, symName: __ZNSt20__uninitialized_copyILb0EE13__uninit_copyINSt8__detail14_Node_iteratorISt4pairIKciELb0ELb0EEEPS4_IciEEET0_T_SB_SA_, symObjAddr: 0x2558, symBinAddr: 0x100002EC4, symSize: 0x2C }
  - { offsetInCU: 0x116F3, offset: 0x116F3, size: 0x8, addend: 0x0, symName: __ZNSt8__detail14_Node_iteratorISt4pairIKciELb0ELb0EEppEv, symObjAddr: 0x24BC, symBinAddr: 0x100002E28, symSize: 0x20 }
  - { offsetInCU: 0x116FB, offset: 0x116FB, size: 0x8, addend: 0x0, symName: __ZNSt15__new_allocatorISt4pairIciEE8allocateEmPKv, symObjAddr: 0x24DC, symBinAddr: 0x100002E48, symSize: 0x7C }
  - { offsetInCU: 0x11774, offset: 0x11774, size: 0x8, addend: 0x0, symName: __ZNSt8__detailneERKNS_19_Node_iterator_baseISt4pairIKciELb0EEES6_, symObjAddr: 0x248C, symBinAddr: 0x100002DF8, symSize: 0x30 }
  - { offsetInCU: 0x1177C, offset: 0x1177C, size: 0x8, addend: 0x0, symName: __ZNSt8__detail14_Node_iteratorISt4pairIKciELb0ELb0EEppEv, symObjAddr: 0x24BC, symBinAddr: 0x100002E28, symSize: 0x20 }
  - { offsetInCU: 0x1177F, offset: 0x1177F, size: 0x8, addend: 0x0, symName: __ZNSt15__new_allocatorISt4pairIciEE10deallocateEPS1_m, symObjAddr: 0x245C, symBinAddr: 0x100002DC8, symSize: 0x30 }
  - { offsetInCU: 0x11787, offset: 0x11787, size: 0x8, addend: 0x0, symName: __ZNSt8__detailneERKNS_19_Node_iterator_baseISt4pairIKciELb0EEES6_, symObjAddr: 0x248C, symBinAddr: 0x100002DF8, symSize: 0x30 }
  - { offsetInCU: 0x117F6, offset: 0x117F6, size: 0x8, addend: 0x0, symName: __ZNSt10_HashtableIcSt4pairIKciESaIS2_ENSt8__detail10_Select1stESt8equal_toIcESt4hashIcENS4_18_Mod_range_hashingENS4_20_Default_ranged_hashENS4_20_Prime_rehash_policyENS4_17_Hashtable_traitsILb0ELb0ELb1EEEE13_M_rehash_auxEmSt17integral_constantIbLb1EE, symObjAddr: 0x22F0, symBinAddr: 0x100002C5C, symSize: 0x16C }
  - { offsetInCU: 0x117FE, offset: 0x117FE, size: 0x8, addend: 0x0, symName: __ZNSt15__new_allocatorISt4pairIciEE10deallocateEPS1_m, symObjAddr: 0x245C, symBinAddr: 0x100002DC8, symSize: 0x30 }
  - { offsetInCU: 0x11A0C, offset: 0x11A0C, size: 0x8, addend: 0x0, symName: __ZSt12__to_addressINSt8__detail10_Hash_nodeISt4pairIKciELb0EEEEPT_S7_, symObjAddr: 0x22DC, symBinAddr: 0x100002C48, symSize: 0x14 }
  - { offsetInCU: 0x11A14, offset: 0x11A14, size: 0x8, addend: 0x0, symName: __ZNSt10_HashtableIcSt4pairIKciESaIS2_ENSt8__detail10_Select1stESt8equal_toIcESt4hashIcENS4_18_Mod_range_hashingENS4_20_Default_ranged_hashENS4_20_Prime_rehash_policyENS4_17_Hashtable_traitsILb0ELb0ELb1EEEE13_M_rehash_auxEmSt17integral_constantIbLb1EE, symObjAddr: 0x22F0, symBinAddr: 0x100002C5C, symSize: 0x16C }
  - { offsetInCU: 0x11A3B, offset: 0x11A3B, size: 0x8, addend: 0x0, symName: __ZNSt10_Head_baseILm0ERKcLb0EEC2ES1_, symObjAddr: 0x22B8, symBinAddr: 0x100002C24, symSize: 0x24 }
  - { offsetInCU: 0x11A43, offset: 0x11A43, size: 0x8, addend: 0x0, symName: __ZSt12__to_addressINSt8__detail10_Hash_nodeISt4pairIKciELb0EEEEPT_S7_, symObjAddr: 0x22DC, symBinAddr: 0x100002C48, symSize: 0x14 }
  - { offsetInCU: 0x11A50, offset: 0x11A50, size: 0x8, addend: 0x0, symName: __ZN9__gnu_cxx16__aligned_bufferISt4pairIKciEE6_M_ptrEv, symObjAddr: 0x229C, symBinAddr: 0x100002C08, symSize: 0x1C }
  - { offsetInCU: 0x11A58, offset: 0x11A58, size: 0x8, addend: 0x0, symName: __ZNSt10_Head_baseILm0ERKcLb0EEC2ES1_, symObjAddr: 0x22B8, symBinAddr: 0x100002C24, symSize: 0x24 }
  - { offsetInCU: 0x11A7F, offset: 0x11A7F, size: 0x8, addend: 0x0, symName: __ZNKSt10_HashtableIcSt4pairIKciESaIS2_ENSt8__detail10_Select1stESt8equal_toIcESt4hashIcENS4_18_Mod_range_hashingENS4_20_Default_ranged_hashENS4_20_Prime_rehash_policyENS4_17_Hashtable_traitsILb0ELb0ELb1EEEE15_M_bucket_indexERKNS4_16_Hash_node_valueIS2_Lb0EEE, symObjAddr: 0x226C, symBinAddr: 0x100002BD8, symSize: 0x30 }
  - { offsetInCU: 0x11A87, offset: 0x11A87, size: 0x8, addend: 0x0, symName: __ZN9__gnu_cxx16__aligned_bufferISt4pairIKciEE6_M_ptrEv, symObjAddr: 0x229C, symBinAddr: 0x100002C08, symSize: 0x1C }
  - { offsetInCU: 0x11AC2, offset: 0x11AC2, size: 0x8, addend: 0x0, symName: __ZNKSt8__detail15_Hashtable_baseIcSt4pairIKciENS_10_Select1stESt8equal_toIcESt4hashIcENS_18_Mod_range_hashingENS_20_Default_ranged_hashENS_17_Hashtable_traitsILb0ELb0ELb1EEEE9_M_equalsERS2_mRKNS_16_Hash_node_valueIS3_Lb0EEE, symObjAddr: 0x2204, symBinAddr: 0x100002B70, symSize: 0x68 }
  - { offsetInCU: 0x11ACA, offset: 0x11ACA, size: 0x8, addend: 0x0, symName: __ZNKSt10_HashtableIcSt4pairIKciESaIS2_ENSt8__detail10_Select1stESt8equal_toIcESt4hashIcENS4_18_Mod_range_hashingENS4_20_Default_ranged_hashENS4_20_Prime_rehash_policyENS4_17_Hashtable_traitsILb0ELb0ELb1EEEE15_M_bucket_indexERKNS4_16_Hash_node_valueIS2_Lb0EEE, symObjAddr: 0x226C, symBinAddr: 0x100002BD8, symSize: 0x30 }
  - { offsetInCU: 0x11B2D, offset: 0x11B2D, size: 0x8, addend: 0x0, symName: __ZNKSt8__detail21_Hashtable_ebo_helperILi1ESt4hashIcELb1EE7_M_cgetEv, symObjAddr: 0x21F0, symBinAddr: 0x100002B5C, symSize: 0x14 }
  - { offsetInCU: 0x11B35, offset: 0x11B35, size: 0x8, addend: 0x0, symName: __ZNKSt8__detail15_Hashtable_baseIcSt4pairIKciENS_10_Select1stESt8equal_toIcESt4hashIcENS_18_Mod_range_hashingENS_20_Default_ranged_hashENS_17_Hashtable_traitsILb0ELb0ELb1EEEE9_M_equalsERS2_mRKNS_16_Hash_node_valueIS3_Lb0EEE, symObjAddr: 0x2204, symBinAddr: 0x100002B70, symSize: 0x68 }
  - { offsetInCU: 0x11BF0, offset: 0x11BF0, size: 0x8, addend: 0x0, symName: __ZNSt19__ptr_traits_ptr_toIPPNSt8__detail15_Hash_node_baseES2_Lb0EE10pointer_toERS2_, symObjAddr: 0x21D4, symBinAddr: 0x100002B40, symSize: 0x1C }
  - { offsetInCU: 0x11BF8, offset: 0x11BF8, size: 0x8, addend: 0x0, symName: __ZNKSt8__detail21_Hashtable_ebo_helperILi1ESt4hashIcELb1EE7_M_cgetEv, symObjAddr: 0x21F0, symBinAddr: 0x100002B5C, symSize: 0x14 }
  - { offsetInCU: 0x11C21, offset: 0x11C21, size: 0x8, addend: 0x0, symName: __ZNSt8__detail16_Hashtable_allocISaINS_10_Hash_nodeISt4pairIKciELb0EEEEE22_M_deallocate_node_ptrEPS5_, symObjAddr: 0x217C, symBinAddr: 0x100002AE8, symSize: 0x58 }
  - { offsetInCU: 0x11C29, offset: 0x11C29, size: 0x8, addend: 0x0, symName: __ZNSt19__ptr_traits_ptr_toIPPNSt8__detail15_Hash_node_baseES2_Lb0EE10pointer_toERS2_, symObjAddr: 0x21D4, symBinAddr: 0x100002B40, symSize: 0x1C }
  - { offsetInCU: 0x11CF0, offset: 0x11CF0, size: 0x8, addend: 0x0, symName: __ZNSt8__detail16_Hashtable_allocISaINS_10_Hash_nodeISt4pairIKciELb0EEEEE17_M_node_allocatorEv, symObjAddr: 0x2160, symBinAddr: 0x100002ACC, symSize: 0x1C }
  - { offsetInCU: 0x11CF8, offset: 0x11CF8, size: 0x8, addend: 0x0, symName: __ZNSt8__detail16_Hashtable_allocISaINS_10_Hash_nodeISt4pairIKciELb0EEEEE22_M_deallocate_node_ptrEPS5_, symObjAddr: 0x217C, symBinAddr: 0x100002AE8, symSize: 0x58 }
  - { offsetInCU: 0x11E88, offset: 0x11E88, size: 0x8, addend: 0x0, symName: __ZSt26__unguarded_insertion_sortIN9__gnu_cxx17__normal_iteratorIPSt4pairIciESt6vectorIS3_SaIS3_EEEENS0_5__ops15_Iter_comp_iterIPFbRS3_SB_EEEEvT_SF_T0_, symObjAddr: 0x20F8, symBinAddr: 0x100002A64, symSize: 0x68 }
  - { offsetInCU: 0x11E90, offset: 0x11E90, size: 0x8, addend: 0x0, symName: __ZNSt8__detail16_Hashtable_allocISaINS_10_Hash_nodeISt4pairIKciELb0EEEEE17_M_node_allocatorEv, symObjAddr: 0x2160, symBinAddr: 0x100002ACC, symSize: 0x1C }
  - { offsetInCU: 0x11F13, offset: 0x11F13, size: 0x8, addend: 0x0, symName: __ZSt16__insertion_sortIN9__gnu_cxx17__normal_iteratorIPSt4pairIciESt6vectorIS3_SaIS3_EEEENS0_5__ops15_Iter_comp_iterIPFbRS3_SB_EEEEvT_SF_T0_, symObjAddr: 0x1FF4, symBinAddr: 0x100002960, symSize: 0x104 }
  - { offsetInCU: 0x11F1B, offset: 0x11F1B, size: 0x8, addend: 0x0, symName: __ZSt26__unguarded_insertion_sortIN9__gnu_cxx17__normal_iteratorIPSt4pairIciESt6vectorIS3_SaIS3_EEEENS0_5__ops15_Iter_comp_iterIPFbRS3_SB_EEEEvT_SF_T0_, symObjAddr: 0x20F8, symBinAddr: 0x100002A64, symSize: 0x68 }
  - { offsetInCU: 0x11E83, offset: 0x11E83, size: 0x8, addend: 0x0, symName: __ZNK9__gnu_cxx17__normal_iteratorIPSt4pairIciESt6vectorIS2_SaIS2_EEEplEl, symObjAddr: 0x1FB4, symBinAddr: 0x100002920, symSize: 0x40 }
  - { offsetInCU: 0x11E8B, offset: 0x11E8B, size: 0x8, addend: 0x0, symName: __ZSt16__insertion_sortIN9__gnu_cxx17__normal_iteratorIPSt4pairIciESt6vectorIS3_SaIS3_EEEENS0_5__ops15_Iter_comp_iterIPFbRS3_SB_EEEEvT_SF_T0_, symObjAddr: 0x1FF4, symBinAddr: 0x100002960, symSize: 0x104 }
  - { offsetInCU: 0x12037, offset: 0x12037, size: 0x8, addend: 0x0, symName: __ZSt27__unguarded_partition_pivotIN9__gnu_cxx17__normal_iteratorIPSt4pairIciESt6vectorIS3_SaIS3_EEEENS0_5__ops15_Iter_comp_iterIPFbRS3_SB_EEEET_SF_SF_T0_, symObjAddr: 0x1F18, symBinAddr: 0x100002884, symSize: 0x9C }
  - { offsetInCU: 0x1203F, offset: 0x1203F, size: 0x8, addend: 0x0, symName: __ZNK9__gnu_cxx17__normal_iteratorIPSt4pairIciESt6vectorIS2_SaIS2_EEEplEl, symObjAddr: 0x1FB4, symBinAddr: 0x100002920, symSize: 0x40 }
  - { offsetInCU: 0x120AF, offset: 0x120AF, size: 0x8, addend: 0x0, symName: __ZSt14__partial_sortIN9__gnu_cxx17__normal_iteratorIPSt4pairIciESt6vectorIS3_SaIS3_EEEENS0_5__ops15_Iter_comp_iterIPFbRS3_SB_EEEEvT_SF_SF_T0_, symObjAddr: 0x1ECC, symBinAddr: 0x100002838, symSize: 0x4C }
  - { offsetInCU: 0x120B7, offset: 0x120B7, size: 0x8, addend: 0x0, symName: __ZSt27__unguarded_partition_pivotIN9__gnu_cxx17__normal_iteratorIPSt4pairIciESt6vectorIS3_SaIS3_EEEENS0_5__ops15_Iter_comp_iterIPFbRS3_SB_EEEET_SF_SF_T0_, symObjAddr: 0x1F18, symBinAddr: 0x100002884, symSize: 0x9C }
  - { offsetInCU: 0x12024, offset: 0x12024, size: 0x8, addend: 0x0, symName: __ZSt11__bit_widthImEiT_, symObjAddr: 0x1E9C, symBinAddr: 0x100002808, symSize: 0x30 }
  - { offsetInCU: 0x1202C, offset: 0x1202C, size: 0x8, addend: 0x0, symName: __ZSt14__partial_sortIN9__gnu_cxx17__normal_iteratorIPSt4pairIciESt6vectorIS3_SaIS3_EEEENS0_5__ops15_Iter_comp_iterIPFbRS3_SB_EEEEvT_SF_SF_T0_, symObjAddr: 0x1ECC, symBinAddr: 0x100002838, symSize: 0x4C }
  - { offsetInCU: 0x12048, offset: 0x12048, size: 0x8, addend: 0x0, symName: __ZNSt12_Destroy_auxILb1EE9__destroyIPSt4pairIciEEEvT_S5_, symObjAddr: 0x1E84, symBinAddr: 0x1000027F0, symSize: 0x18 }
  - { offsetInCU: 0x12050, offset: 0x12050, size: 0x8, addend: 0x0, symName: __ZSt11__bit_widthImEiT_, symObjAddr: 0x1E9C, symBinAddr: 0x100002808, symSize: 0x30 }
  - { offsetInCU: 0x12163, offset: 0x12163, size: 0x8, addend: 0x0, symName: __ZSt18uninitialized_copyINSt8__detail14_Node_iteratorISt4pairIKciELb0ELb0EEEPS2_IciEET0_T_S9_S8_, symObjAddr: 0x1E50, symBinAddr: 0x1000027BC, symSize: 0x34 }
  - { offsetInCU: 0x1216B, offset: 0x1216B, size: 0x8, addend: 0x0, symName: __ZNSt12_Destroy_auxILb1EE9__destroyIPSt4pairIciEEEvT_S5_, symObjAddr: 0x1E84, symBinAddr: 0x1000027F0, symSize: 0x18 }
  - { offsetInCU: 0x1215B, offset: 0x1215B, size: 0x8, addend: 0x0, symName: __ZNSt6vectorISt4pairIciESaIS1_EE11_S_max_sizeERKS2_, symObjAddr: 0x1DFC, symBinAddr: 0x100002768, symSize: 0x54 }
  - { offsetInCU: 0x12163, offset: 0x12163, size: 0x8, addend: 0x0, symName: __ZSt18uninitialized_copyINSt8__detail14_Node_iteratorISt4pairIKciELb0ELb0EEEPS2_IciEET0_T_S9_S8_, symObjAddr: 0x1E50, symBinAddr: 0x1000027BC, symSize: 0x34 }
  - { offsetInCU: 0x1230C, offset: 0x1230C, size: 0x8, addend: 0x0, symName: __ZSt10__distanceINSt8__detail14_Node_iteratorISt4pairIKciELb0ELb0EEEENSt15iterator_traitsIT_E15difference_typeES7_S7_St18input_iterator_tag, symObjAddr: 0x1DA4, symBinAddr: 0x100002710, symSize: 0x58 }
  - { offsetInCU: 0x12314, offset: 0x12314, size: 0x8, addend: 0x0, symName: __ZNSt6vectorISt4pairIciESaIS1_EE11_S_max_sizeERKS2_, symObjAddr: 0x1DFC, symBinAddr: 0x100002768, symSize: 0x54 }
  - { offsetInCU: 0x12339, offset: 0x12339, size: 0x8, addend: 0x0, symName: __ZNSt12_Vector_baseISt4pairIciESaIS1_EE17_Vector_impl_dataC2Ev, symObjAddr: 0x1D78, symBinAddr: 0x1000026E4, symSize: 0x2C }
  - { offsetInCU: 0x12341, offset: 0x12341, size: 0x8, addend: 0x0, symName: __ZSt10__distanceINSt8__detail14_Node_iteratorISt4pairIKciELb0ELb0EEEENSt15iterator_traitsIT_E15difference_typeES7_S7_St18input_iterator_tag, symObjAddr: 0x1DA4, symBinAddr: 0x100002710, symSize: 0x58 }
  - { offsetInCU: 0x123CE, offset: 0x123CE, size: 0x8, addend: 0x0, symName: __ZNSt8__detail19_Node_iterator_baseISt4pairIKciELb0EEC2EPNS_10_Hash_nodeIS3_Lb0EEE, symObjAddr: 0x1D54, symBinAddr: 0x1000026C0, symSize: 0x24 }
  - { offsetInCU: 0x123D6, offset: 0x123D6, size: 0x8, addend: 0x0, symName: __ZNSt12_Vector_baseISt4pairIciESaIS1_EE17_Vector_impl_dataC2Ev, symObjAddr: 0x1D78, symBinAddr: 0x1000026E4, symSize: 0x2C }
  - { offsetInCU: 0x123B5, offset: 0x123B5, size: 0x8, addend: 0x0, symName: __ZNSt10_HashtableIcSt4pairIKciESaIS2_ENSt8__detail10_Select1stESt8equal_toIcESt4hashIcENS4_18_Mod_range_hashingENS4_20_Default_ranged_hashENS4_20_Prime_rehash_policyENS4_17_Hashtable_traitsILb0ELb0ELb1EEEE22_M_insert_bucket_beginEmPNS4_10_Hash_nodeIS2_Lb0EEE, symObjAddr: 0x1C48, symBinAddr: 0x1000025B4, symSize: 0x10C }
  - { offsetInCU: 0x123BD, offset: 0x123BD, size: 0x8, addend: 0x0, symName: __ZNSt8__detail19_Node_iterator_baseISt4pairIKciELb0EEC2EPNS_10_Hash_nodeIS3_Lb0EEE, symObjAddr: 0x1D54, symBinAddr: 0x1000026C0, symSize: 0x24 }
  - { offsetInCU: 0x1240C, offset: 0x1240C, size: 0x8, addend: 0x0, symName: __ZNKSt8__detail15_Hash_code_baseIcSt4pairIKciENS_10_Select1stESt4hashIcENS_18_Mod_range_hashingENS_20_Default_ranged_hashELb0EE13_M_store_codeERNS_21_Hash_node_code_cacheILb0EEEm, symObjAddr: 0x1C2C, symBinAddr: 0x100002598, symSize: 0x1C }
  - { offsetInCU: 0x12414, offset: 0x12414, size: 0x8, addend: 0x0, symName: __ZNSt10_HashtableIcSt4pairIKciESaIS2_ENSt8__detail10_Select1stESt8equal_toIcESt4hashIcENS4_18_Mod_range_hashingENS4_20_Default_ranged_hashENS4_20_Prime_rehash_policyENS4_17_Hashtable_traitsILb0ELb0ELb1EEEE22_M_insert_bucket_beginEmPNS4_10_Hash_nodeIS2_Lb0EEE, symObjAddr: 0x1C48, symBinAddr: 0x1000025B4, symSize: 0x10C }
  - { offsetInCU: 0x12453, offset: 0x12453, size: 0x8, addend: 0x0, symName: __ZNSt10_HashtableIcSt4pairIKciESaIS2_ENSt8__detail10_Select1stESt8equal_toIcESt4hashIcENS4_18_Mod_range_hashingENS4_20_Default_ranged_hashENS4_20_Prime_rehash_policyENS4_17_Hashtable_traitsILb0ELb0ELb1EEEE9_M_rehashEmRKm, symObjAddr: 0x1BC0, symBinAddr: 0x10000252C, symSize: 0x6C }
  - { offsetInCU: 0x1245B, offset: 0x1245B, size: 0x8, addend: 0x0, symName: __ZNKSt8__detail15_Hash_code_baseIcSt4pairIKciENS_10_Select1stESt4hashIcENS_18_Mod_range_hashingENS_20_Default_ranged_hashELb0EE13_M_store_codeERNS_21_Hash_node_code_cacheILb0EEEm, symObjAddr: 0x1C2C, symBinAddr: 0x100002598, symSize: 0x1C }
  - { offsetInCU: 0x124AA, offset: 0x124AA, size: 0x8, addend: 0x0, symName: __ZNSt8__detail16_Hashtable_allocISaINS_10_Hash_nodeISt4pairIKciELb0EEEEE16_M_allocate_nodeIJRKSt21piecewise_construct_tSt5tupleIJRS3_EESC_IJEEEEEPS5_DpOT_, symObjAddr: 0x19DC, symBinAddr: 0x100002348, symSize: 0x1E4 }
  - { offsetInCU: 0x124B2, offset: 0x124B2, size: 0x8, addend: 0x0, symName: __ZNSt10_HashtableIcSt4pairIKciESaIS2_ENSt8__detail10_Select1stESt8equal_toIcESt4hashIcENS4_18_Mod_range_hashingENS4_20_Default_ranged_hashENS4_20_Prime_rehash_policyENS4_17_Hashtable_traitsILb0ELb0ELb1EEEE9_M_rehashEmRKm, symObjAddr: 0x1BC0, symBinAddr: 0x10000252C, symSize: 0x6C }
  - { offsetInCU: 0x126C3, offset: 0x126C3, size: 0x8, addend: 0x0, symName: __ZNSt8__detail10_Hash_nodeISt4pairIKciELb0EEC1Ev, symObjAddr: 0x19BC, symBinAddr: 0x100002328, symSize: 0x20 }
  - { offsetInCU: 0x126CB, offset: 0x126CB, size: 0x8, addend: 0x0, symName: __ZNSt8__detail16_Hashtable_allocISaINS_10_Hash_nodeISt4pairIKciELb0EEEEE16_M_allocate_nodeIJRKSt21piecewise_construct_tSt5tupleIJRS3_EESC_IJEEEEEPS5_DpOT_, symObjAddr: 0x19DC, symBinAddr: 0x100002348, symSize: 0x1E4 }
  - { offsetInCU: 0x1271A, offset: 0x1271A, size: 0x8, addend: 0x0, symName: __ZSt7forwardISt5tupleIJEEEOT_RNSt16remove_referenceIS2_E4typeE, symObjAddr: 0x19A8, symBinAddr: 0x100002314, symSize: 0x14 }
  - { offsetInCU: 0x12722, offset: 0x12722, size: 0x8, addend: 0x0, symName: __ZNSt8__detail10_Hash_nodeISt4pairIKciELb0EEC1Ev, symObjAddr: 0x19BC, symBinAddr: 0x100002328, symSize: 0x20 }
  - { offsetInCU: 0x1277C, offset: 0x1277C, size: 0x8, addend: 0x0, symName: __ZSt7forwardISt5tupleIJRKcEEEOT_RNSt16remove_referenceIS4_E4typeE, symObjAddr: 0x1994, symBinAddr: 0x100002300, symSize: 0x14 }
  - { offsetInCU: 0x12784, offset: 0x12784, size: 0x8, addend: 0x0, symName: __ZSt7forwardISt5tupleIJEEEOT_RNSt16remove_referenceIS2_E4typeE, symObjAddr: 0x19A8, symBinAddr: 0x100002314, symSize: 0x14 }
  - { offsetInCU: 0x127E5, offset: 0x127E5, size: 0x8, addend: 0x0, symName: __ZSt7forwardIRKSt21piecewise_construct_tEOT_RNSt16remove_referenceIS3_E4typeE, symObjAddr: 0x1980, symBinAddr: 0x1000022EC, symSize: 0x14 }
  - { offsetInCU: 0x127ED, offset: 0x127ED, size: 0x8, addend: 0x0, symName: __ZSt7forwardISt5tupleIJRKcEEEOT_RNSt16remove_referenceIS4_E4typeE, symObjAddr: 0x1994, symBinAddr: 0x100002300, symSize: 0x14 }
  - { offsetInCU: 0x1280A, offset: 0x1280A, size: 0x8, addend: 0x0, symName: __ZNSt11_Tuple_implILm0EJRKcEEC2ES1_, symObjAddr: 0x1958, symBinAddr: 0x1000022C4, symSize: 0x28 }
  - { offsetInCU: 0x12812, offset: 0x12812, size: 0x8, addend: 0x0, symName: __ZSt7forwardIRKSt21piecewise_construct_tEOT_RNSt16remove_referenceIS3_E4typeE, symObjAddr: 0x1980, symBinAddr: 0x1000022EC, symSize: 0x14 }
  - { offsetInCU: 0x12820, offset: 0x12820, size: 0x8, addend: 0x0, symName: __ZNSt8__detail21_Hash_node_value_baseISt4pairIKciEE9_M_valptrEv, symObjAddr: 0x193C, symBinAddr: 0x1000022A8, symSize: 0x1C }
  - { offsetInCU: 0x12828, offset: 0x12828, size: 0x8, addend: 0x0, symName: __ZNSt11_Tuple_implILm0EJRKcEEC2ES1_, symObjAddr: 0x1958, symBinAddr: 0x1000022C4, symSize: 0x28 }
  - { offsetInCU: 0x1284F, offset: 0x1284F, size: 0x8, addend: 0x0, symName: __ZNKSt10_HashtableIcSt4pairIKciESaIS2_ENSt8__detail10_Select1stESt8equal_toIcESt4hashIcENS4_18_Mod_range_hashingENS4_20_Default_ranged_hashENS4_20_Prime_rehash_policyENS4_17_Hashtable_traitsILb0ELb0ELb1EEEE19_M_find_before_nodeEmRS1_m, symObjAddr: 0x183C, symBinAddr: 0x1000021A8, symSize: 0x100 }
  - { offsetInCU: 0x12857, offset: 0x12857, size: 0x8, addend: 0x0, symName: __ZNSt8__detail21_Hash_node_value_baseISt4pairIKciEE9_M_valptrEv, symObjAddr: 0x193C, symBinAddr: 0x1000022A8, symSize: 0x1C }
  - { offsetInCU: 0x128F4, offset: 0x128F4, size: 0x8, addend: 0x0, symName: __ZNKSt8__detail15_Hash_code_baseIcSt4pairIKciENS_10_Select1stESt4hashIcENS_18_Mod_range_hashingENS_20_Default_ranged_hashELb0EE15_M_bucket_indexEmm, symObjAddr: 0x1810, symBinAddr: 0x10000217C, symSize: 0x2C }
  - { offsetInCU: 0x128FC, offset: 0x128FC, size: 0x8, addend: 0x0, symName: __ZNKSt10_HashtableIcSt4pairIKciESaIS2_ENSt8__detail10_Select1stESt8equal_toIcESt4hashIcENS4_18_Mod_range_hashingENS4_20_Default_ranged_hashENS4_20_Prime_rehash_policyENS4_17_Hashtable_traitsILb0ELb0ELb1EEEE19_M_find_before_nodeEmRS1_m, symObjAddr: 0x183C, symBinAddr: 0x1000021A8, symSize: 0x100 }
  - { offsetInCU: 0x1294B, offset: 0x1294B, size: 0x8, addend: 0x0, symName: __ZNKSt8__detail15_Hash_code_baseIcSt4pairIKciENS_10_Select1stESt4hashIcENS_18_Mod_range_hashingENS_20_Default_ranged_hashELb0EE7_M_hashEv, symObjAddr: 0x17F4, symBinAddr: 0x100002160, symSize: 0x1C }
  - { offsetInCU: 0x12953, offset: 0x12953, size: 0x8, addend: 0x0, symName: __ZNKSt8__detail15_Hash_code_baseIcSt4pairIKciENS_10_Select1stESt4hashIcENS_18_Mod_range_hashingENS_20_Default_ranged_hashELb0EE15_M_bucket_indexEmm, symObjAddr: 0x1810, symBinAddr: 0x10000217C, symSize: 0x2C }
  - { offsetInCU: 0x1297A, offset: 0x1297A, size: 0x8, addend: 0x0, symName: __ZNSt8__detail16_Hashtable_allocISaINS_10_Hash_nodeISt4pairIKciELb0EEEEE21_M_deallocate_bucketsEPPNS_15_Hash_node_baseEm, symObjAddr: 0x177C, symBinAddr: 0x1000020E8, symSize: 0x78 }
  - { offsetInCU: 0x12982, offset: 0x12982, size: 0x8, addend: 0x0, symName: __ZNKSt8__detail15_Hash_code_baseIcSt4pairIKciENS_10_Select1stESt4hashIcENS_18_Mod_range_hashingENS_20_Default_ranged_hashELb0EE7_M_hashEv, symObjAddr: 0x17F4, symBinAddr: 0x100002160, symSize: 0x1C }
  - { offsetInCU: 0x12AAD, offset: 0x12AAD, size: 0x8, addend: 0x0, symName: __ZNKSt10_HashtableIcSt4pairIKciESaIS2_ENSt8__detail10_Select1stESt8equal_toIcESt4hashIcENS4_18_Mod_range_hashingENS4_20_Default_ranged_hashENS4_20_Prime_rehash_policyENS4_17_Hashtable_traitsILb0ELb0ELb1EEEE21_M_uses_single_bucketEPPNS4_15_Hash_node_baseE, symObjAddr: 0x1740, symBinAddr: 0x1000020AC, symSize: 0x3C }
  - { offsetInCU: 0x12AB5, offset: 0x12AB5, size: 0x8, addend: 0x0, symName: __ZNSt8__detail16_Hashtable_allocISaINS_10_Hash_nodeISt4pairIKciELb0EEEEE21_M_deallocate_bucketsEPPNS_15_Hash_node_baseEm, symObjAddr: 0x177C, symBinAddr: 0x1000020E8, symSize: 0x78 }
  - { offsetInCU: 0x12AF0, offset: 0x12AF0, size: 0x8, addend: 0x0, symName: __ZNSt8__detail16_Hashtable_allocISaINS_10_Hash_nodeISt4pairIKciELb0EEEEE18_M_deallocate_nodeEPS5_, symObjAddr: 0x16D8, symBinAddr: 0x100002044, symSize: 0x68 }
  - { offsetInCU: 0x12AF8, offset: 0x12AF8, size: 0x8, addend: 0x0, symName: __ZNKSt10_HashtableIcSt4pairIKciESaIS2_ENSt8__detail10_Select1stESt8equal_toIcESt4hashIcENS4_18_Mod_range_hashingENS4_20_Default_ranged_hashENS4_20_Prime_rehash_policyENS4_17_Hashtable_traitsILb0ELb0ELb1EEEE21_M_uses_single_bucketEPPNS4_15_Hash_node_baseE, symObjAddr: 0x1740, symBinAddr: 0x1000020AC, symSize: 0x3C }
  - { offsetInCU: 0x12B97, offset: 0x12B97, size: 0x8, addend: 0x0, symName: __ZNKSt8__detail10_Hash_nodeISt4pairIKciELb0EE7_M_nextEv, symObjAddr: 0x16C0, symBinAddr: 0x10000202C, symSize: 0x18 }
  - { offsetInCU: 0x12B9F, offset: 0x12B9F, size: 0x8, addend: 0x0, symName: __ZNSt8__detail16_Hashtable_allocISaINS_10_Hash_nodeISt4pairIKciELb0EEEEE18_M_deallocate_nodeEPS5_, symObjAddr: 0x16D8, symBinAddr: 0x100002044, symSize: 0x68 }
  - { offsetInCU: 0x12DA1, offset: 0x12DA1, size: 0x8, addend: 0x0, symName: __ZSt22__final_insertion_sortIN9__gnu_cxx17__normal_iteratorIPSt4pairIciESt6vectorIS3_SaIS3_EEEENS0_5__ops15_Iter_comp_iterIPFbRS3_SB_EEEEvT_SF_T0_, symObjAddr: 0x1634, symBinAddr: 0x100001FA0, symSize: 0x8C }
  - { offsetInCU: 0x12DA9, offset: 0x12DA9, size: 0x8, addend: 0x0, symName: __ZNKSt8__detail10_Hash_nodeISt4pairIKciELb0EE7_M_nextEv, symObjAddr: 0x16C0, symBinAddr: 0x10000202C, symSize: 0x18 }
  - { offsetInCU: 0x12E1C, offset: 0x12E1C, size: 0x8, addend: 0x0, symName: __ZSt16__introsort_loopIN9__gnu_cxx17__normal_iteratorIPSt4pairIciESt6vectorIS3_SaIS3_EEEElNS0_5__ops15_Iter_comp_iterIPFbRS3_SB_EEEEvT_SF_T0_T1_, symObjAddr: 0x158C, symBinAddr: 0x100001EF8, symSize: 0xA8 }
  - { offsetInCU: 0x12E24, offset: 0x12E24, size: 0x8, addend: 0x0, symName: __ZSt22__final_insertion_sortIN9__gnu_cxx17__normal_iteratorIPSt4pairIciESt6vectorIS3_SaIS3_EEEENS0_5__ops15_Iter_comp_iterIPFbRS3_SB_EEEEvT_SF_T0_, symObjAddr: 0x1634, symBinAddr: 0x100001FA0, symSize: 0x8C }
  - { offsetInCU: 0x12D9F, offset: 0x12D9F, size: 0x8, addend: 0x0, symName: __ZSt4__lgIlET_S0_, symObjAddr: 0x1568, symBinAddr: 0x100001ED4, symSize: 0x24 }
  - { offsetInCU: 0x12DA7, offset: 0x12DA7, size: 0x8, addend: 0x0, symName: __ZSt16__introsort_loopIN9__gnu_cxx17__normal_iteratorIPSt4pairIciESt6vectorIS3_SaIS3_EEEElNS0_5__ops15_Iter_comp_iterIPFbRS3_SB_EEEEvT_SF_T0_T1_, symObjAddr: 0x158C, symBinAddr: 0x100001EF8, symSize: 0xA8 }
  - { offsetInCU: 0x12E7B, offset: 0x12E7B, size: 0x8, addend: 0x0, symName: __ZN9__gnu_cxxmiIPSt4pairIciESt6vectorIS2_SaIS2_EEEENS_17__normal_iteratorIT_T0_E15difference_typeERKSA_SD_, symObjAddr: 0x1528, symBinAddr: 0x100001E94, symSize: 0x40 }
  - { offsetInCU: 0x12E83, offset: 0x12E83, size: 0x8, addend: 0x0, symName: __ZSt4__lgIlET_S0_, symObjAddr: 0x1568, symBinAddr: 0x100001ED4, symSize: 0x24 }
  - { offsetInCU: 0x12E9B, offset: 0x12E9B, size: 0x8, addend: 0x0, symName: __ZN9__gnu_cxx5__ops15_Iter_comp_iterIPFbRSt4pairIciES4_EEC1ES6_, symObjAddr: 0x14F8, symBinAddr: 0x100001E64, symSize: 0x30 }
  - { offsetInCU: 0x12EA3, offset: 0x12EA3, size: 0x8, addend: 0x0, symName: __ZN9__gnu_cxxmiIPSt4pairIciESt6vectorIS2_SaIS2_EEEENS_17__normal_iteratorIT_T0_E15difference_typeERKSA_SD_, symObjAddr: 0x1528, symBinAddr: 0x100001E94, symSize: 0x40 }
  - { offsetInCU: 0x12F1B, offset: 0x12F1B, size: 0x8, addend: 0x0, symName: __ZSt4moveIRPFbRSt4pairIciES2_EEONSt16remove_referenceIT_E4typeEOS7_, symObjAddr: 0x14E4, symBinAddr: 0x100001E50, symSize: 0x14 }
  - { offsetInCU: 0x12F23, offset: 0x12F23, size: 0x8, addend: 0x0, symName: __ZN9__gnu_cxx5__ops15_Iter_comp_iterIPFbRSt4pairIciES4_EEC1ES6_, symObjAddr: 0x14F8, symBinAddr: 0x100001E64, symSize: 0x30 }
  - { offsetInCU: 0x12F35, offset: 0x12F35, size: 0x8, addend: 0x0, symName: __ZSt8_DestroyIPSt4pairIciEEvT_S3_, symObjAddr: 0x14BC, symBinAddr: 0x100001E28, symSize: 0x28 }
  - { offsetInCU: 0x12F3D, offset: 0x12F3D, size: 0x8, addend: 0x0, symName: __ZSt4moveIRPFbRSt4pairIciES2_EEONSt16remove_referenceIT_E4typeEOS7_, symObjAddr: 0x14E4, symBinAddr: 0x100001E50, symSize: 0x14 }
  - { offsetInCU: 0x1304B, offset: 0x1304B, size: 0x8, addend: 0x0, symName: __ZSt22__uninitialized_copy_aINSt8__detail14_Node_iteratorISt4pairIKciELb0ELb0EEEPS2_IciES6_ET0_T_S9_S8_RSaIT1_E, symObjAddr: 0x148C, symBinAddr: 0x100001DF8, symSize: 0x30 }
  - { offsetInCU: 0x13053, offset: 0x13053, size: 0x8, addend: 0x0, symName: __ZSt8_DestroyIPSt4pairIciEEvT_S3_, symObjAddr: 0x14BC, symBinAddr: 0x100001E28, symSize: 0x28 }
  - { offsetInCU: 0x12FE2, offset: 0x12FE2, size: 0x8, addend: 0x0, symName: __ZNSt12_Vector_baseISt4pairIciESaIS1_EE11_M_allocateEm, symObjAddr: 0x143C, symBinAddr: 0x100001DA8, symSize: 0x50 }
  - { offsetInCU: 0x12FEA, offset: 0x12FEA, size: 0x8, addend: 0x0, symName: __ZSt22__uninitialized_copy_aINSt8__detail14_Node_iteratorISt4pairIKciELb0ELb0EEEPS2_IciES6_ET0_T_S9_S8_RSaIT1_E, symObjAddr: 0x148C, symBinAddr: 0x100001DF8, symSize: 0x30 }
  - { offsetInCU: 0x13057, offset: 0x13057, size: 0x8, addend: 0x0, symName: __ZNSt6vectorISt4pairIciESaIS1_EE17_S_check_init_lenEmRKS2_, symObjAddr: 0x13B8, symBinAddr: 0x100001D24, symSize: 0x84 }
  - { offsetInCU: 0x1305F, offset: 0x1305F, size: 0x8, addend: 0x0, symName: __ZNSt12_Vector_baseISt4pairIciESaIS1_EE11_M_allocateEm, symObjAddr: 0x143C, symBinAddr: 0x100001DA8, symSize: 0x50 }
  - { offsetInCU: 0x13165, offset: 0x13165, size: 0x8, addend: 0x0, symName: __ZNSt12_Vector_baseISt4pairIciESaIS1_EE13_M_deallocateEPS1_m, symObjAddr: 0x1360, symBinAddr: 0x100001CCC, symSize: 0x58 }
  - { offsetInCU: 0x1316D, offset: 0x1316D, size: 0x8, addend: 0x0, symName: __ZNSt6vectorISt4pairIciESaIS1_EE17_S_check_init_lenEmRKS2_, symObjAddr: 0x13B8, symBinAddr: 0x100001D24, symSize: 0x84 }
  - { offsetInCU: 0x13261, offset: 0x13261, size: 0x8, addend: 0x0, symName: __ZNSt12_Vector_baseISt4pairIciESaIS1_EE12_Vector_implC1ERKS2_, symObjAddr: 0x1314, symBinAddr: 0x100001C80, symSize: 0x4C }
  - { offsetInCU: 0x13269, offset: 0x13269, size: 0x8, addend: 0x0, symName: __ZNSt12_Vector_baseISt4pairIciESaIS1_EE13_M_deallocateEPS1_m, symObjAddr: 0x1360, symBinAddr: 0x100001CCC, symSize: 0x58 }
  - { offsetInCU: 0x1333D, offset: 0x1333D, size: 0x8, addend: 0x0, symName: __ZNSt8__detail14_Node_iteratorISt4pairIKciELb0ELb0EEC1EPNS_10_Hash_nodeIS3_Lb0EEE, symObjAddr: 0x12EC, symBinAddr: 0x100001C58, symSize: 0x28 }
  - { offsetInCU: 0x13345, offset: 0x13345, size: 0x8, addend: 0x0, symName: __ZNSt12_Vector_baseISt4pairIciESaIS1_EE12_Vector_implC1ERKS2_, symObjAddr: 0x1314, symBinAddr: 0x100001C80, symSize: 0x4C }
  - { offsetInCU: 0x13325, offset: 0x13325, size: 0x8, addend: 0x0, symName: __ZNKSt8__detail14_Node_iteratorISt4pairIKciELb0ELb0EEptEv, symObjAddr: 0x12C8, symBinAddr: 0x100001C34, symSize: 0x24 }
  - { offsetInCU: 0x1332D, offset: 0x1332D, size: 0x8, addend: 0x0, symName: __ZNSt8__detail14_Node_iteratorISt4pairIKciELb0ELb0EEC1EPNS_10_Hash_nodeIS3_Lb0EEE, symObjAddr: 0x12EC, symBinAddr: 0x100001C58, symSize: 0x28 }
  - { offsetInCU: 0x13354, offset: 0x13354, size: 0x8, addend: 0x0, symName: __ZNSt10_HashtableIcSt4pairIKciESaIS2_ENSt8__detail10_Select1stESt8equal_toIcESt4hashIcENS4_18_Mod_range_hashingENS4_20_Default_ranged_hashENS4_20_Prime_rehash_policyENS4_17_Hashtable_traitsILb0ELb0ELb1EEEE21_M_insert_unique_nodeEmmPNS4_10_Hash_nodeIS2_Lb0EEEm, symObjAddr: 0x11E0, symBinAddr: 0x100001B4C, symSize: 0xE8 }
  - { offsetInCU: 0x1335C, offset: 0x1335C, size: 0x8, addend: 0x0, symName: __ZNKSt8__detail14_Node_iteratorISt4pairIKciELb0ELb0EEptEv, symObjAddr: 0x12C8, symBinAddr: 0x100001C34, symSize: 0x24 }
  - { offsetInCU: 0x13505, offset: 0x13505, size: 0x8, addend: 0x0, symName: __ZNSt10_HashtableIcSt4pairIKciESaIS2_ENSt8__detail10_Select1stESt8equal_toIcESt4hashIcENS4_18_Mod_range_hashingENS4_20_Default_ranged_hashENS4_20_Prime_rehash_policyENS4_17_Hashtable_traitsILb0ELb0ELb1EEEE12_Scoped_nodeD1Ev, symObjAddr: 0x119C, symBinAddr: 0x100001B08, symSize: 0x44 }
  - { offsetInCU: 0x1350D, offset: 0x1350D, size: 0x8, addend: 0x0, symName: __ZNSt10_HashtableIcSt4pairIKciESaIS2_ENSt8__detail10_Select1stESt8equal_toIcESt4hashIcENS4_18_Mod_range_hashingENS4_20_Default_ranged_hashENS4_20_Prime_rehash_policyENS4_17_Hashtable_traitsILb0ELb0ELb1EEEE21_M_insert_unique_nodeEmmPNS4_10_Hash_nodeIS2_Lb0EEEm, symObjAddr: 0x11E0, symBinAddr: 0x100001B4C, symSize: 0xE8 }
  - { offsetInCU: 0x13611, offset: 0x13611, size: 0x8, addend: 0x0, symName: __ZNSt10_HashtableIcSt4pairIKciESaIS2_ENSt8__detail10_Select1stESt8equal_toIcESt4hashIcENS4_18_Mod_range_hashingENS4_20_Default_ranged_hashENS4_20_Prime_rehash_policyENS4_17_Hashtable_traitsILb0ELb0ELb1EEEE12_Scoped_nodeC1IJRKSt21piecewise_construct_tSt5tupleIJRS1_EESL_IJEEEEEPNS4_16_Hashtable_allocISaINS4_10_Hash_nodeIS2_Lb0EEEEEEDpOT_, symObjAddr: 0x1114, symBinAddr: 0x100001A80, symSize: 0x88 }
  - { offsetInCU: 0x13619, offset: 0x13619, size: 0x8, addend: 0x0, symName: __ZNSt10_HashtableIcSt4pairIKciESaIS2_ENSt8__detail10_Select1stESt8equal_toIcESt4hashIcENS4_18_Mod_range_hashingENS4_20_Default_ranged_hashENS4_20_Prime_rehash_policyENS4_17_Hashtable_traitsILb0ELb0ELb1EEEE12_Scoped_nodeD1Ev, symObjAddr: 0x119C, symBinAddr: 0x100001B08, symSize: 0x44 }
  - { offsetInCU: 0x135A0, offset: 0x135A0, size: 0x8, addend: 0x0, symName: __ZNSt5tupleIJRKcEEC1ILb1ELb1EEES1_, symObjAddr: 0x10EC, symBinAddr: 0x100001A58, symSize: 0x28 }
  - { offsetInCU: 0x135A8, offset: 0x135A8, size: 0x8, addend: 0x0, symName: __ZNSt10_HashtableIcSt4pairIKciESaIS2_ENSt8__detail10_Select1stESt8equal_toIcESt4hashIcENS4_18_Mod_range_hashingENS4_20_Default_ranged_hashENS4_20_Prime_rehash_policyENS4_17_Hashtable_traitsILb0ELb0ELb1EEEE12_Scoped_nodeC1IJRKSt21piecewise_construct_tSt5tupleIJRS1_EESL_IJEEEEEPNS4_16_Hashtable_allocISaINS4_10_Hash_nodeIS2_Lb0EEEEEEDpOT_, symObjAddr: 0x1114, symBinAddr: 0x100001A80, symSize: 0x88 }
  - { offsetInCU: 0x135C6, offset: 0x135C6, size: 0x8, addend: 0x0, symName: __ZNSt8__detail21_Hash_node_value_baseISt4pairIKciEE4_M_vEv, symObjAddr: 0x10D0, symBinAddr: 0x100001A3C, symSize: 0x1C }
  - { offsetInCU: 0x135CE, offset: 0x135CE, size: 0x8, addend: 0x0, symName: __ZNSt5tupleIJRKcEEC1ILb1ELb1EEES1_, symObjAddr: 0x10EC, symBinAddr: 0x100001A58, symSize: 0x28 }
  - { offsetInCU: 0x135F5, offset: 0x135F5, size: 0x8, addend: 0x0, symName: __ZNKSt10_HashtableIcSt4pairIKciESaIS2_ENSt8__detail10_Select1stESt8equal_toIcESt4hashIcENS4_18_Mod_range_hashingENS4_20_Default_ranged_hashENS4_20_Prime_rehash_policyENS4_17_Hashtable_traitsILb0ELb0ELb1EEEE12_M_find_nodeEmRS1_m, symObjAddr: 0x107C, symBinAddr: 0x1000019E8, symSize: 0x54 }
  - { offsetInCU: 0x135FD, offset: 0x135FD, size: 0x8, addend: 0x0, symName: __ZNSt8__detail21_Hash_node_value_baseISt4pairIKciEE4_M_vEv, symObjAddr: 0x10D0, symBinAddr: 0x100001A3C, symSize: 0x1C }
  - { offsetInCU: 0x13674, offset: 0x13674, size: 0x8, addend: 0x0, symName: __ZNKSt10_HashtableIcSt4pairIKciESaIS2_ENSt8__detail10_Select1stESt8equal_toIcESt4hashIcENS4_18_Mod_range_hashingENS4_20_Default_ranged_hashENS4_20_Prime_rehash_policyENS4_17_Hashtable_traitsILb0ELb0ELb1EEEE15_M_bucket_indexEm, symObjAddr: 0x104C, symBinAddr: 0x1000019B8, symSize: 0x30 }
  - { offsetInCU: 0x1367C, offset: 0x1367C, size: 0x8, addend: 0x0, symName: __ZNKSt10_HashtableIcSt4pairIKciESaIS2_ENSt8__detail10_Select1stESt8equal_toIcESt4hashIcENS4_18_Mod_range_hashingENS4_20_Default_ranged_hashENS4_20_Prime_rehash_policyENS4_17_Hashtable_traitsILb0ELb0ELb1EEEE12_M_find_nodeEmRS1_m, symObjAddr: 0x107C, symBinAddr: 0x1000019E8, symSize: 0x54 }
  - { offsetInCU: 0x136B7, offset: 0x136B7, size: 0x8, addend: 0x0, symName: __ZNKSt8__detail15_Hash_code_baseIcSt4pairIKciENS_10_Select1stESt4hashIcENS_18_Mod_range_hashingENS_20_Default_ranged_hashELb0EE12_M_hash_codeERS2_, symObjAddr: 0x1014, symBinAddr: 0x100001980, symSize: 0x38 }
  - { offsetInCU: 0x136BF, offset: 0x136BF, size: 0x8, addend: 0x0, symName: __ZNKSt10_HashtableIcSt4pairIKciESaIS2_ENSt8__detail10_Select1stESt8equal_toIcESt4hashIcENS4_18_Mod_range_hashingENS4_20_Default_ranged_hashENS4_20_Prime_rehash_policyENS4_17_Hashtable_traitsILb0ELb0ELb1EEEE15_M_bucket_indexEm, symObjAddr: 0x104C, symBinAddr: 0x1000019B8, symSize: 0x30 }
  - { offsetInCU: 0x136FA, offset: 0x136FA, size: 0x8, addend: 0x0, symName: __ZNSt10_HashtableIcSt4pairIKciESaIS2_ENSt8__detail10_Select1stESt8equal_toIcESt4hashIcENS4_18_Mod_range_hashingENS4_20_Default_ranged_hashENS4_20_Prime_rehash_policyENS4_17_Hashtable_traitsILb0ELb0ELb1EEEE21_M_deallocate_bucketsEPPNS4_15_Hash_node_baseEm, symObjAddr: 0xFC4, symBinAddr: 0x100001930, symSize: 0x50 }
  - { offsetInCU: 0x13702, offset: 0x13702, size: 0x8, addend: 0x0, symName: __ZNKSt8__detail15_Hash_code_baseIcSt4pairIKciENS_10_Select1stESt4hashIcENS_18_Mod_range_hashingENS_20_Default_ranged_hashELb0EE12_M_hash_codeERS2_, symObjAddr: 0x1014, symBinAddr: 0x100001980, symSize: 0x38 }
  - { offsetInCU: 0x13751, offset: 0x13751, size: 0x8, addend: 0x0, symName: __ZNSt8__detail16_Hashtable_allocISaINS_10_Hash_nodeISt4pairIKciELb0EEEEE19_M_deallocate_nodesEPS5_, symObjAddr: 0xF74, symBinAddr: 0x1000018E0, symSize: 0x50 }
  - { offsetInCU: 0x13759, offset: 0x13759, size: 0x8, addend: 0x0, symName: __ZNSt10_HashtableIcSt4pairIKciESaIS2_ENSt8__detail10_Select1stESt8equal_toIcESt4hashIcENS4_18_Mod_range_hashingENS4_20_Default_ranged_hashENS4_20_Prime_rehash_policyENS4_17_Hashtable_traitsILb0ELb0ELb1EEEE21_M_deallocate_bucketsEPPNS4_15_Hash_node_baseEm, symObjAddr: 0xFC4, symBinAddr: 0x100001930, symSize: 0x50 }
  - { offsetInCU: 0x137BA, offset: 0x137BA, size: 0x8, addend: 0x0, symName: __ZNKSt10_HashtableIcSt4pairIKciESaIS2_ENSt8__detail10_Select1stESt8equal_toIcESt4hashIcENS4_18_Mod_range_hashingENS4_20_Default_ranged_hashENS4_20_Prime_rehash_policyENS4_17_Hashtable_traitsILb0ELb0ELb1EEEE8_M_beginEv, symObjAddr: 0xF5C, symBinAddr: 0x1000018C8, symSize: 0x18 }
  - { offsetInCU: 0x137C2, offset: 0x137C2, size: 0x8, addend: 0x0, symName: __ZNSt8__detail16_Hashtable_allocISaINS_10_Hash_nodeISt4pairIKciELb0EEEEE19_M_deallocate_nodesEPS5_, symObjAddr: 0xF74, symBinAddr: 0x1000018E0, symSize: 0x50 }
  - { offsetInCU: 0x1385F, offset: 0x1385F, size: 0x8, addend: 0x0, symName: __ZNK9__gnu_cxx17__normal_iteratorIPSt4pairIciESt6vectorIS2_SaIS2_EEE4baseEv, symObjAddr: 0xF48, symBinAddr: 0x1000018B4, symSize: 0x14 }
  - { offsetInCU: 0x13867, offset: 0x13867, size: 0x8, addend: 0x0, symName: __ZNKSt10_HashtableIcSt4pairIKciESaIS2_ENSt8__detail10_Select1stESt8equal_toIcESt4hashIcENS4_18_Mod_range_hashingENS4_20_Default_ranged_hashENS4_20_Prime_rehash_policyENS4_17_Hashtable_traitsILb0ELb0ELb1EEEE8_M_beginEv, symObjAddr: 0xF5C, symBinAddr: 0x1000018C8, symSize: 0x18 }
  - { offsetInCU: 0x139CE, offset: 0x139CE, size: 0x8, addend: 0x0, symName: __ZSt6__sortIN9__gnu_cxx17__normal_iteratorIPSt4pairIciESt6vectorIS3_SaIS3_EEEENS0_5__ops15_Iter_comp_iterIPFbRS3_SB_EEEEvT_SF_T0_, symObjAddr: 0xED4, symBinAddr: 0x100001840, symSize: 0x74 }
  - { offsetInCU: 0x139D6, offset: 0x139D6, size: 0x8, addend: 0x0, symName: __ZNK9__gnu_cxx17__normal_iteratorIPSt4pairIciESt6vectorIS2_SaIS2_EEE4baseEv, symObjAddr: 0xF48, symBinAddr: 0x1000018B4, symSize: 0x14 }
  - { offsetInCU: 0x139AD, offset: 0x139AD, size: 0x8, addend: 0x0, symName: __ZN9__gnu_cxx5__ops16__iter_comp_iterIPFbRSt4pairIciES4_EEENS0_15_Iter_comp_iterIT_EES8_, symObjAddr: 0xEA8, symBinAddr: 0x100001814, symSize: 0x2C }
  - { offsetInCU: 0x139B5, offset: 0x139B5, size: 0x8, addend: 0x0, symName: __ZSt6__sortIN9__gnu_cxx17__normal_iteratorIPSt4pairIciESt6vectorIS3_SaIS3_EEEENS0_5__ops15_Iter_comp_iterIPFbRS3_SB_EEEEvT_SF_T0_, symObjAddr: 0xED4, symBinAddr: 0x100001840, symSize: 0x74 }
  - { offsetInCU: 0x139C7, offset: 0x139C7, size: 0x8, addend: 0x0, symName: __ZN9__gnu_cxx17__normal_iteratorIPSt4pairIciESt6vectorIS2_SaIS2_EEEC1ERKS3_, symObjAddr: 0xE80, symBinAddr: 0x1000017EC, symSize: 0x28 }
  - { offsetInCU: 0x139CF, offset: 0x139CF, size: 0x8, addend: 0x0, symName: __ZN9__gnu_cxx5__ops16__iter_comp_iterIPFbRSt4pairIciES4_EEENS0_15_Iter_comp_iterIT_EES8_, symObjAddr: 0xEA8, symBinAddr: 0x100001814, symSize: 0x2C }
  - { offsetInCU: 0x13A0A, offset: 0x13A0A, size: 0x8, addend: 0x0, symName: __ZNSt12_Vector_baseISt4pairIciESaIS1_EE19_M_get_Tp_allocatorEv, symObjAddr: 0xE6C, symBinAddr: 0x1000017D8, symSize: 0x14 }
  - { offsetInCU: 0x13A12, offset: 0x13A12, size: 0x8, addend: 0x0, symName: __ZN9__gnu_cxx17__normal_iteratorIPSt4pairIciESt6vectorIS2_SaIS2_EEEC1ERKS3_, symObjAddr: 0xE80, symBinAddr: 0x1000017EC, symSize: 0x28 }
  - { offsetInCU: 0x13A39, offset: 0x13A39, size: 0x8, addend: 0x0, symName: __ZNSt6vectorISt4pairIciESaIS1_EE19_M_range_initializeINSt8__detail14_Node_iteratorIS0_IKciELb0ELb0EEEEEvT_SA_St20forward_iterator_tag, symObjAddr: 0xD98, symBinAddr: 0x100001704, symSize: 0xD4 }
  - { offsetInCU: 0x13A41, offset: 0x13A41, size: 0x8, addend: 0x0, symName: __ZNSt12_Vector_baseISt4pairIciESaIS1_EE19_M_get_Tp_allocatorEv, symObjAddr: 0xE6C, symBinAddr: 0x1000017D8, symSize: 0x14 }
  - { offsetInCU: 0x13B9C, offset: 0x13B9C, size: 0x8, addend: 0x0, symName: __ZNSt12_Vector_baseISt4pairIciESaIS1_EED2Ev, symObjAddr: 0xD48, symBinAddr: 0x1000016B4, symSize: 0x50 }
  - { offsetInCU: 0x13BA4, offset: 0x13BA4, size: 0x8, addend: 0x0, symName: __ZNSt6vectorISt4pairIciESaIS1_EE19_M_range_initializeINSt8__detail14_Node_iteratorIS0_IKciELb0ELb0EEEEEvT_SA_St20forward_iterator_tag, symObjAddr: 0xD98, symBinAddr: 0x100001704, symSize: 0xD4 }
  - { offsetInCU: 0x13BF8, offset: 0x13BF8, size: 0x8, addend: 0x0, symName: __ZNSt12_Vector_baseISt4pairIciESaIS1_EEC2ERKS2_, symObjAddr: 0xD20, symBinAddr: 0x10000168C, symSize: 0x28 }
  - { offsetInCU: 0x13C00, offset: 0x13C00, size: 0x8, addend: 0x0, symName: __ZNSt12_Vector_baseISt4pairIciESaIS1_EED2Ev, symObjAddr: 0xD48, symBinAddr: 0x1000016B4, symSize: 0x50 }
  - { offsetInCU: 0x13C67, offset: 0x13C67, size: 0x8, addend: 0x0, symName: __ZNSt12_Vector_baseISt4pairIciESaIS1_EE12_Vector_implD1Ev, symObjAddr: 0xCF4, symBinAddr: 0x100001660, symSize: 0x2C }
  - { offsetInCU: 0x13C6F, offset: 0x13C6F, size: 0x8, addend: 0x0, symName: __ZNSt12_Vector_baseISt4pairIciESaIS1_EEC2ERKS2_, symObjAddr: 0xD20, symBinAddr: 0x10000168C, symSize: 0x28 }
  - { offsetInCU: 0x13CD0, offset: 0x13CD0, size: 0x8, addend: 0x0, symName: __ZNSt15__new_allocatorISt4pairIciEED2Ev, symObjAddr: 0xCE0, symBinAddr: 0x10000164C, symSize: 0x14 }
  - { offsetInCU: 0x13CD8, offset: 0x13CD8, size: 0x8, addend: 0x0, symName: __ZNSt12_Vector_baseISt4pairIciESaIS1_EE12_Vector_implD1Ev, symObjAddr: 0xCF4, symBinAddr: 0x100001660, symSize: 0x2C }
  - { offsetInCU: 0x13CEF, offset: 0x13CEF, size: 0x8, addend: 0x0, symName: __ZNSt10_HashtableIcSt4pairIKciESaIS2_ENSt8__detail10_Select1stESt8equal_toIcESt4hashIcENS4_18_Mod_range_hashingENS4_20_Default_ranged_hashENS4_20_Prime_rehash_policyENS4_17_Hashtable_traitsILb0ELb0ELb1EEEE3endEv, symObjAddr: 0xCBC, symBinAddr: 0x100001628, symSize: 0x24 }
  - { offsetInCU: 0x13CF7, offset: 0x13CF7, size: 0x8, addend: 0x0, symName: __ZNSt15__new_allocatorISt4pairIciEED2Ev, symObjAddr: 0xCE0, symBinAddr: 0x10000164C, symSize: 0x14 }
  - { offsetInCU: 0x13D1E, offset: 0x13D1E, size: 0x8, addend: 0x0, symName: __ZNSt10_HashtableIcSt4pairIKciESaIS2_ENSt8__detail10_Select1stESt8equal_toIcESt4hashIcENS4_18_Mod_range_hashingENS4_20_Default_ranged_hashENS4_20_Prime_rehash_policyENS4_17_Hashtable_traitsILb0ELb0ELb1EEEE5beginEv, symObjAddr: 0xC90, symBinAddr: 0x1000015FC, symSize: 0x2C }
  - { offsetInCU: 0x13D26, offset: 0x13D26, size: 0x8, addend: 0x0, symName: __ZNSt10_HashtableIcSt4pairIKciESaIS2_ENSt8__detail10_Select1stESt8equal_toIcESt4hashIcENS4_18_Mod_range_hashingENS4_20_Default_ranged_hashENS4_20_Prime_rehash_policyENS4_17_Hashtable_traitsILb0ELb0ELb1EEEE3endEv, symObjAddr: 0xCBC, symBinAddr: 0x100001628, symSize: 0x24 }
  - { offsetInCU: 0x13D4D, offset: 0x13D4D, size: 0x8, addend: 0x0, symName: __ZNSt8__detail9_Map_baseIcSt4pairIKciESaIS3_ENS_10_Select1stESt8equal_toIcESt4hashIcENS_18_Mod_range_hashingENS_20_Default_ranged_hashENS_20_Prime_rehash_policyENS_17_Hashtable_traitsILb0ELb0ELb1EEELb1EEixERS2_, symObjAddr: 0xB88, symBinAddr: 0x1000014F4, symSize: 0x108 }
  - { offsetInCU: 0x13D55, offset: 0x13D55, size: 0x8, addend: 0x0, symName: __ZNSt10_HashtableIcSt4pairIKciESaIS2_ENSt8__detail10_Select1stESt8equal_toIcESt4hashIcENS4_18_Mod_range_hashingENS4_20_Default_ranged_hashENS4_20_Prime_rehash_policyENS4_17_Hashtable_traitsILb0ELb0ELb1EEEE5beginEv, symObjAddr: 0xC90, symBinAddr: 0x1000015FC, symSize: 0x2C }
  - { offsetInCU: 0x13E27, offset: 0x13E27, size: 0x8, addend: 0x0, symName: __ZNSt10_HashtableIcSt4pairIKciESaIS2_ENSt8__detail10_Select1stESt8equal_toIcESt4hashIcENS4_18_Mod_range_hashingENS4_20_Default_ranged_hashENS4_20_Prime_rehash_policyENS4_17_Hashtable_traitsILb0ELb0ELb1EEEE21_M_deallocate_bucketsEv, symObjAddr: 0xB54, symBinAddr: 0x1000014C0, symSize: 0x34 }
  - { offsetInCU: 0x13E2F, offset: 0x13E2F, size: 0x8, addend: 0x0, symName: __ZNSt8__detail9_Map_baseIcSt4pairIKciESaIS3_ENS_10_Select1stESt8equal_toIcESt4hashIcENS_18_Mod_range_hashingENS_20_Default_ranged_hashENS_20_Prime_rehash_policyENS_17_Hashtable_traitsILb0ELb0ELb1EEELb1EEixERS2_, symObjAddr: 0xB88, symBinAddr: 0x1000014F4, symSize: 0x108 }
  - { offsetInCU: 0x13E56, offset: 0x13E56, size: 0x8, addend: 0x0, symName: __ZNSt10_HashtableIcSt4pairIKciESaIS2_ENSt8__detail10_Select1stESt8equal_toIcESt4hashIcENS4_18_Mod_range_hashingENS4_20_Default_ranged_hashENS4_20_Prime_rehash_policyENS4_17_Hashtable_traitsILb0ELb0ELb1EEEE5clearEv, symObjAddr: 0xAF0, symBinAddr: 0x10000145C, symSize: 0x64 }
  - { offsetInCU: 0x13E5E, offset: 0x13E5E, size: 0x8, addend: 0x0, symName: __ZNSt10_HashtableIcSt4pairIKciESaIS2_ENSt8__detail10_Select1stESt8equal_toIcESt4hashIcENS4_18_Mod_range_hashingENS4_20_Default_ranged_hashENS4_20_Prime_rehash_policyENS4_17_Hashtable_traitsILb0ELb0ELb1EEEE21_M_deallocate_bucketsEv, symObjAddr: 0xB54, symBinAddr: 0x1000014C0, symSize: 0x34 }
  - { offsetInCU: 0x13EF4, offset: 0x13EF4, size: 0x8, addend: 0x0, symName: __ZNSt15__new_allocatorINSt8__detail10_Hash_nodeISt4pairIKciELb0EEEED2Ev, symObjAddr: 0xADC, symBinAddr: 0x100001448, symSize: 0x14 }
  - { offsetInCU: 0x13EFC, offset: 0x13EFC, size: 0x8, addend: 0x0, symName: __ZNSt10_HashtableIcSt4pairIKciESaIS2_ENSt8__detail10_Select1stESt8equal_toIcESt4hashIcENS4_18_Mod_range_hashingENS4_20_Default_ranged_hashENS4_20_Prime_rehash_policyENS4_17_Hashtable_traitsILb0ELb0ELb1EEEE5clearEv, symObjAddr: 0xAF0, symBinAddr: 0x10000145C, symSize: 0x64 }
  - { offsetInCU: 0x13F38, offset: 0x13F38, size: 0x8, addend: 0x0, symName: __ZSt7forwardIiEOT_RNSt16remove_referenceIS0_E4typeE, symObjAddr: 0xAC8, symBinAddr: 0x100001434, symSize: 0x14 }
  - { offsetInCU: 0x13F40, offset: 0x13F40, size: 0x8, addend: 0x0, symName: __ZNSt15__new_allocatorINSt8__detail10_Hash_nodeISt4pairIKciELb0EEEED2Ev, symObjAddr: 0xADC, symBinAddr: 0x100001448, symSize: 0x14 }
  - { offsetInCU: 0x13F47, offset: 0x13F47, size: 0x8, addend: 0x0, symName: __ZNSt7__cxx1112basic_stringIcSt11char_traitsIcESaIcEE12_M_constructIPKcEEvT_S8_St20forward_iterator_tag, symObjAddr: 0x9E0, symBinAddr: 0x10000134C, symSize: 0xE8 }
  - { offsetInCU: 0x13F4F, offset: 0x13F4F, size: 0x8, addend: 0x0, symName: __ZSt7forwardIiEOT_RNSt16remove_referenceIS0_E4typeE, symObjAddr: 0xAC8, symBinAddr: 0x100001434, symSize: 0x14 }
  - { offsetInCU: 0x14100, offset: 0x14100, size: 0x8, addend: 0x0, symName: __ZZNSt7__cxx1112basic_stringIcSt11char_traitsIcESaIcEE12_M_constructIPKcEEvT_S8_St20forward_iterator_tagEN6_GuardC1EPS4_, symObjAddr: 0x988, symBinAddr: 0x1000012F4, symSize: 0x24 }
  - { offsetInCU: 0x14108, offset: 0x14108, size: 0x8, addend: 0x0, symName: __ZZNSt7__cxx1112basic_stringIcSt11char_traitsIcESaIcEE12_M_constructIPKcEEvT_S8_St20forward_iterator_tagEN6_GuardD1Ev, symObjAddr: 0x9AC, symBinAddr: 0x100001318, symSize: 0x34 }
  - { offsetInCU: 0x14138, offset: 0x14138, size: 0x8, addend: 0x0, symName: __ZZNSt7__cxx1112basic_stringIcSt11char_traitsIcESaIcEE12_M_constructIPKcEEvT_S8_St20forward_iterator_tagEN6_GuardD1Ev, symObjAddr: 0x9AC, symBinAddr: 0x100001318, symSize: 0x34 }
  - { offsetInCU: 0x14140, offset: 0x14140, size: 0x8, addend: 0x0, symName: __ZNSt7__cxx1112basic_stringIcSt11char_traitsIcESaIcEE12_M_constructIPKcEEvT_S8_St20forward_iterator_tag, symObjAddr: 0x9E0, symBinAddr: 0x10000134C, symSize: 0xE8 }
  - { offsetInCU: 0x14202, offset: 0x14202, size: 0x8, addend: 0x0, symName: __ZNSt15__new_allocatorIcED2Ev, symObjAddr: 0x974, symBinAddr: 0x1000012E0, symSize: 0x14 }
  - { offsetInCU: 0x1420A, offset: 0x1420A, size: 0x8, addend: 0x0, symName: __ZZNSt7__cxx1112basic_stringIcSt11char_traitsIcESaIcEE12_M_constructIPKcEEvT_S8_St20forward_iterator_tagEN6_GuardC1EPS4_, symObjAddr: 0x988, symBinAddr: 0x1000012F4, symSize: 0x24 }
  - { offsetInCU: 0x1422B, offset: 0x1422B, size: 0x8, addend: 0x0, symName: __ZN9__gnu_cxx11char_traitsIcE2eqERKcS3_, symObjAddr: 0x944, symBinAddr: 0x1000012B0, symSize: 0x30 }
  - { offsetInCU: 0x14233, offset: 0x14233, size: 0x8, addend: 0x0, symName: __ZNSt15__new_allocatorIcED2Ev, symObjAddr: 0x974, symBinAddr: 0x1000012E0, symSize: 0x14 }
  - { offsetInCU: 0x1426F, offset: 0x1426F, size: 0x8, addend: 0x0, symName: __ZNK9__gnu_cxx17__normal_iteratorIPSt4pairIciESt6vectorIS2_SaIS2_EEEdeEv, symObjAddr: 0x92C, symBinAddr: 0x100001298, symSize: 0x18 }
  - { offsetInCU: 0x14277, offset: 0x14277, size: 0x8, addend: 0x0, symName: __ZN9__gnu_cxx11char_traitsIcE2eqERKcS3_, symObjAddr: 0x944, symBinAddr: 0x1000012B0, symSize: 0x30 }
  - { offsetInCU: 0x1429E, offset: 0x1429E, size: 0x8, addend: 0x0, symName: __ZN9__gnu_cxx17__normal_iteratorIPSt4pairIciESt6vectorIS2_SaIS2_EEEppEv, symObjAddr: 0x904, symBinAddr: 0x100001270, symSize: 0x28 }
  - { offsetInCU: 0x142A6, offset: 0x142A6, size: 0x8, addend: 0x0, symName: __ZNK9__gnu_cxx17__normal_iteratorIPSt4pairIciESt6vectorIS2_SaIS2_EEEdeEv, symObjAddr: 0x92C, symBinAddr: 0x100001298, symSize: 0x18 }
  - { offsetInCU: 0x14371, offset: 0x14371, size: 0x8, addend: 0x0, symName: __ZN9__gnu_cxxneIPSt4pairIciESt6vectorIS2_SaIS2_EEEEbRKNS_17__normal_iteratorIT_T0_EESC_, symObjAddr: 0x8C0, symBinAddr: 0x10000122C, symSize: 0x44 }
  - { offsetInCU: 0x14379, offset: 0x14379, size: 0x8, addend: 0x0, symName: __ZN9__gnu_cxx17__normal_iteratorIPSt4pairIciESt6vectorIS2_SaIS2_EEEppEv, symObjAddr: 0x904, symBinAddr: 0x100001270, symSize: 0x28 }
  - { offsetInCU: 0x14434, offset: 0x14434, size: 0x8, addend: 0x0, symName: __ZSt4sortIN9__gnu_cxx17__normal_iteratorIPSt4pairIciESt6vectorIS3_SaIS3_EEEEPFbRS3_S9_EEvT_SC_T0_, symObjAddr: 0x888, symBinAddr: 0x1000011F4, symSize: 0x38 }
  - { offsetInCU: 0x1443C, offset: 0x1443C, size: 0x8, addend: 0x0, symName: __ZN9__gnu_cxxneIPSt4pairIciESt6vectorIS2_SaIS2_EEEEbRKNS_17__normal_iteratorIT_T0_EESC_, symObjAddr: 0x8C0, symBinAddr: 0x10000122C, symSize: 0x44 }
  - { offsetInCU: 0x143B3, offset: 0x143B3, size: 0x8, addend: 0x0, symName: __ZNSt6vectorISt4pairIciESaIS1_EE3endEv, symObjAddr: 0x860, symBinAddr: 0x1000011CC, symSize: 0x28 }
  - { offsetInCU: 0x143BB, offset: 0x143BB, size: 0x8, addend: 0x0, symName: __ZSt4sortIN9__gnu_cxx17__normal_iteratorIPSt4pairIciESt6vectorIS3_SaIS3_EEEEPFbRS3_S9_EEvT_SC_T0_, symObjAddr: 0x888, symBinAddr: 0x1000011F4, symSize: 0x38 }
  - { offsetInCU: 0x143E2, offset: 0x143E2, size: 0x8, addend: 0x0, symName: __ZNSt6vectorISt4pairIciESaIS1_EE5beginEv, symObjAddr: 0x83C, symBinAddr: 0x1000011A8, symSize: 0x24 }
  - { offsetInCU: 0x143EA, offset: 0x143EA, size: 0x8, addend: 0x0, symName: __ZNSt6vectorISt4pairIciESaIS1_EE3endEv, symObjAddr: 0x860, symBinAddr: 0x1000011CC, symSize: 0x28 }
  - { offsetInCU: 0x1445D, offset: 0x1445D, size: 0x8, addend: 0x0, symName: __ZNSt6vectorISt4pairIciESaIS1_EED1Ev, symObjAddr: 0x7E0, symBinAddr: 0x10000114C, symSize: 0x5C }
  - { offsetInCU: 0x14465, offset: 0x14465, size: 0x8, addend: 0x0, symName: __ZNSt6vectorISt4pairIciESaIS1_EE5beginEv, symObjAddr: 0x83C, symBinAddr: 0x1000011A8, symSize: 0x24 }
  - { offsetInCU: 0x1455D, offset: 0x1455D, size: 0x8, addend: 0x0, symName: __ZNSt6vectorISt4pairIciESaIS1_EEC1INSt8__detail14_Node_iteratorIS0_IKciELb0ELb0EEEvEET_SA_RKS2_, symObjAddr: 0x77C, symBinAddr: 0x1000010E8, symSize: 0x64 }
  - { offsetInCU: 0x14565, offset: 0x14565, size: 0x8, addend: 0x0, symName: __ZNSt6vectorISt4pairIciESaIS1_EED1Ev, symObjAddr: 0x7E0, symBinAddr: 0x10000114C, symSize: 0x5C }
  - { offsetInCU: 0x145BF, offset: 0x145BF, size: 0x8, addend: 0x0, symName: __ZNSt13unordered_mapIciSt4hashIcESt8equal_toIcESaISt4pairIKciEEE3endEv, symObjAddr: 0x760, symBinAddr: 0x1000010CC, symSize: 0x1C }
  - { offsetInCU: 0x145C7, offset: 0x145C7, size: 0x8, addend: 0x0, symName: __ZNSt6vectorISt4pairIciESaIS1_EEC1INSt8__detail14_Node_iteratorIS0_IKciELb0ELb0EEEvEET_SA_RKS2_, symObjAddr: 0x77C, symBinAddr: 0x1000010E8, symSize: 0x64 }
  - { offsetInCU: 0x145EE, offset: 0x145EE, size: 0x8, addend: 0x0, symName: __ZNSt13unordered_mapIciSt4hashIcESt8equal_toIcESaISt4pairIKciEEE5beginEv, symObjAddr: 0x744, symBinAddr: 0x1000010B0, symSize: 0x1C }
  - { offsetInCU: 0x145F6, offset: 0x145F6, size: 0x8, addend: 0x0, symName: __ZNSt13unordered_mapIciSt4hashIcESt8equal_toIcESaISt4pairIKciEEE3endEv, symObjAddr: 0x760, symBinAddr: 0x1000010CC, symSize: 0x1C }
  - { offsetInCU: 0x1461D, offset: 0x1461D, size: 0x8, addend: 0x0, symName: __ZNSt13unordered_mapIciSt4hashIcESt8equal_toIcESaISt4pairIKciEEEixERS5_, symObjAddr: 0x720, symBinAddr: 0x10000108C, symSize: 0x24 }
  - { offsetInCU: 0x14625, offset: 0x14625, size: 0x8, addend: 0x0, symName: __ZNSt13unordered_mapIciSt4hashIcESt8equal_toIcESaISt4pairIKciEEE5beginEv, symObjAddr: 0x744, symBinAddr: 0x1000010B0, symSize: 0x1C }
  - { offsetInCU: 0x14759, offset: 0x14759, size: 0x8, addend: 0x0, symName: __ZNSt10_HashtableIcSt4pairIKciESaIS2_ENSt8__detail10_Select1stESt8equal_toIcESt4hashIcENS4_18_Mod_range_hashingENS4_20_Default_ranged_hashENS4_20_Prime_rehash_policyENS4_17_Hashtable_traitsILb0ELb0ELb1EEEED1Ev, symObjAddr: 0x6F0, symBinAddr: 0x10000105C, symSize: 0x30 }
  - { offsetInCU: 0x14761, offset: 0x14761, size: 0x8, addend: 0x0, symName: __ZNSt13unordered_mapIciSt4hashIcESt8equal_toIcESaISt4pairIKciEEEixERS5_, symObjAddr: 0x720, symBinAddr: 0x10000108C, symSize: 0x24 }
  - { offsetInCU: 0x1474F, offset: 0x1474F, size: 0x8, addend: 0x0, symName: __ZNSt8__detail21_Hashtable_ebo_helperILi0ESaINS_10_Hash_nodeISt4pairIKciELb0EEEELb1EEC2Ev, symObjAddr: 0x6C4, symBinAddr: 0x100001030, symSize: 0x2C }
  - { offsetInCU: 0x14757, offset: 0x14757, size: 0x8, addend: 0x0, symName: __ZNSt10_HashtableIcSt4pairIKciESaIS2_ENSt8__detail10_Select1stESt8equal_toIcESt4hashIcENS4_18_Mod_range_hashingENS4_20_Default_ranged_hashENS4_20_Prime_rehash_policyENS4_17_Hashtable_traitsILb0ELb0ELb1EEEED1Ev, symObjAddr: 0x6F0, symBinAddr: 0x10000105C, symSize: 0x30 }
  - { offsetInCU: 0x147CA, offset: 0x147CA, size: 0x8, addend: 0x0, symName: __ZNSt8__detail21_Hashtable_ebo_helperILi0ESt8equal_toIcELb1EEC2Ev, symObjAddr: 0x6B0, symBinAddr: 0x10000101C, symSize: 0x14 }
  - { offsetInCU: 0x147D2, offset: 0x147D2, size: 0x8, addend: 0x0, symName: __ZNSt8__detail21_Hashtable_ebo_helperILi0ESaINS_10_Hash_nodeISt4pairIKciELb0EEEELb1EEC2Ev, symObjAddr: 0x6C4, symBinAddr: 0x100001030, symSize: 0x2C }
  - { offsetInCU: 0x1480D, offset: 0x1480D, size: 0x8, addend: 0x0, symName: __ZNSt8__detail21_Hashtable_ebo_helperILi1ESt4hashIcELb1EEC2Ev, symObjAddr: 0x69C, symBinAddr: 0x100001008, symSize: 0x14 }
  - { offsetInCU: 0x14815, offset: 0x14815, size: 0x8, addend: 0x0, symName: __ZNSt8__detail21_Hashtable_ebo_helperILi0ESt8equal_toIcELb1EEC2Ev, symObjAddr: 0x6B0, symBinAddr: 0x10000101C, symSize: 0x14 }
  - { offsetInCU: 0x14892, offset: 0x14892, size: 0x8, addend: 0x0, symName: __ZNSt7__cxx1112basic_stringIcSt11char_traitsIcESaIcEEC1IS3_EEPKcRKS3_, symObjAddr: 0x600, symBinAddr: 0x100000F6C, symSize: 0x9C }
  - { offsetInCU: 0x1489A, offset: 0x1489A, size: 0x8, addend: 0x0, symName: __ZNSt8__detail21_Hashtable_ebo_helperILi1ESt4hashIcELb1EEC2Ev, symObjAddr: 0x69C, symBinAddr: 0x100001008, symSize: 0x14 }
  - { offsetInCU: 0x14942, offset: 0x14942, size: 0x8, addend: 0x0, symName: __ZNSt7__cxx1112basic_stringIcSt11char_traitsIcESaIcEE12_Alloc_hiderD1Ev, symObjAddr: 0x5D4, symBinAddr: 0x100000F40, symSize: 0x2C }
  - { offsetInCU: 0x1494A, offset: 0x1494A, size: 0x8, addend: 0x0, symName: __ZNSt7__cxx1112basic_stringIcSt11char_traitsIcESaIcEEC1IS3_EEPKcRKS3_, symObjAddr: 0x600, symBinAddr: 0x100000F6C, symSize: 0x9C }
  - { offsetInCU: 0x1498E, offset: 0x1498E, size: 0x8, addend: 0x0, symName: __ZN9__gnu_cxx11char_traitsIcE6lengthEPKc, symObjAddr: 0x578, symBinAddr: 0x100000EE4, symSize: 0x5C }
  - { offsetInCU: 0x14996, offset: 0x14996, size: 0x8, addend: 0x0, symName: __ZNSt7__cxx1112basic_stringIcSt11char_traitsIcESaIcEE12_Alloc_hiderD1Ev, symObjAddr: 0x5D4, symBinAddr: 0x100000F40, symSize: 0x2C }
  - { offsetInCU: 0x149DC, offset: 0x149DC, size: 0x8, addend: 0x0, symName: _main, symObjAddr: 0x32C, symBinAddr: 0x100000C98, symSize: 0x24C }
  - { offsetInCU: 0x149E4, offset: 0x149E4, size: 0x8, addend: 0x0, symName: __ZN9__gnu_cxx11char_traitsIcE6lengthEPKc, symObjAddr: 0x578, symBinAddr: 0x100000EE4, symSize: 0x5C }
  - { offsetInCU: 0x14C45, offset: 0x14C45, size: 0x8, addend: 0x0, symName: __ZNSt13unordered_mapIciSt4hashIcESt8equal_toIcESaISt4pairIKciEEED1Ev, symObjAddr: 0x30C, symBinAddr: 0x100000C78, symSize: 0x20 }
  - { offsetInCU: 0x14C4D, offset: 0x14C4D, size: 0x8, addend: 0x0, symName: _main, symObjAddr: 0x32C, symBinAddr: 0x100000C98, symSize: 0x24C }
  - { offsetInCU: 0x14C8C, offset: 0x14C8C, size: 0x8, addend: 0x0, symName: __ZNSt13unordered_mapIciSt4hashIcESt8equal_toIcESaISt4pairIKciEEEC1Ev, symObjAddr: 0x2EC, symBinAddr: 0x100000C58, symSize: 0x20 }
  - { offsetInCU: 0x14C94, offset: 0x14C94, size: 0x8, addend: 0x0, symName: __ZNSt13unordered_mapIciSt4hashIcESt8equal_toIcESaISt4pairIKciEEED1Ev, symObjAddr: 0x30C, symBinAddr: 0x100000C78, symSize: 0x20 }
  - { offsetInCU: 0x14D60, offset: 0x14D60, size: 0x8, addend: 0x0, symName: __ZNSt10_HashtableIcSt4pairIKciESaIS2_ENSt8__detail10_Select1stESt8equal_toIcESt4hashIcENS4_18_Mod_range_hashingENS4_20_Default_ranged_hashENS4_20_Prime_rehash_policyENS4_17_Hashtable_traitsILb0ELb0ELb1EEEEC1Ev, symObjAddr: 0x27C, symBinAddr: 0x100000BE8, symSize: 0x70 }
  - { offsetInCU: 0x14D68, offset: 0x14D68, size: 0x8, addend: 0x0, symName: __ZNSt13unordered_mapIciSt4hashIcESt8equal_toIcESaISt4pairIKciEEEC1Ev, symObjAddr: 0x2EC, symBinAddr: 0x100000C58, symSize: 0x20 }
  - { offsetInCU: 0x14D34, offset: 0x14D34, size: 0x8, addend: 0x0, symName: __ZNSt8__detail16_Hashtable_allocISaINS_10_Hash_nodeISt4pairIKciELb0EEEEED2Ev, symObjAddr: 0x25C, symBinAddr: 0x100000BC8, symSize: 0x20 }
  - { offsetInCU: 0x14D3C, offset: 0x14D3C, size: 0x8, addend: 0x0, symName: __ZNSt10_HashtableIcSt4pairIKciESaIS2_ENSt8__detail10_Select1stESt8equal_toIcESt4hashIcENS4_18_Mod_range_hashingENS4_20_Default_ranged_hashENS4_20_Prime_rehash_policyENS4_17_Hashtable_traitsILb0ELb0ELb1EEEEC1Ev, symObjAddr: 0x27C, symBinAddr: 0x100000BE8, symSize: 0x70 }
  - { offsetInCU: 0x14D7B, offset: 0x14D7B, size: 0x8, addend: 0x0, symName: __ZNSt8__detail16_Hashtable_allocISaINS_10_Hash_nodeISt4pairIKciELb0EEEEEC2Ev, symObjAddr: 0x23C, symBinAddr: 0x100000BA8, symSize: 0x20 }
  - { offsetInCU: 0x14D83, offset: 0x14D83, size: 0x8, addend: 0x0, symName: __ZNSt8__detail16_Hashtable_allocISaINS_10_Hash_nodeISt4pairIKciELb0EEEEED2Ev, symObjAddr: 0x25C, symBinAddr: 0x100000BC8, symSize: 0x20 }
  - { offsetInCU: 0x14DE1, offset: 0x14DE1, size: 0x8, addend: 0x0, symName: __ZNSt8__detail21_Hashtable_ebo_helperILi0ESaINS_10_Hash_nodeISt4pairIKciELb0EEEELb1EED2Ev, symObjAddr: 0x210, symBinAddr: 0x100000B7C, symSize: 0x2C }
  - { offsetInCU: 0x14DE9, offset: 0x14DE9, size: 0x8, addend: 0x0, symName: __ZNSt8__detail16_Hashtable_allocISaINS_10_Hash_nodeISt4pairIKciELb0EEEEEC2Ev, symObjAddr: 0x23C, symBinAddr: 0x100000BA8, symSize: 0x20 }
  - { offsetInCU: 0x14EA6, offset: 0x14EA6, size: 0x8, addend: 0x0, symName: __ZNSt8__detail15_Hashtable_baseIcSt4pairIKciENS_10_Select1stESt8equal_toIcESt4hashIcENS_18_Mod_range_hashingENS_20_Default_ranged_hashENS_17_Hashtable_traitsILb0ELb0ELb1EEEEC2Ev, symObjAddr: 0x1E8, symBinAddr: 0x100000B54, symSize: 0x28 }
  - { offsetInCU: 0x14EAE, offset: 0x14EAE, size: 0x8, addend: 0x0, symName: __ZNSt8__detail21_Hashtable_ebo_helperILi0ESaINS_10_Hash_nodeISt4pairIKciELb0EEEELb1EED2Ev, symObjAddr: 0x210, symBinAddr: 0x100000B7C, symSize: 0x2C }
  - { offsetInCU: 0x14EBE, offset: 0x14EBE, size: 0x8, addend: 0x0, symName: __ZNSt8__detail15_Hash_code_baseIcSt4pairIKciENS_10_Select1stESt4hashIcENS_18_Mod_range_hashingENS_20_Default_ranged_hashELb0EEC2Ev, symObjAddr: 0x1C8, symBinAddr: 0x100000B34, symSize: 0x20 }
  - { offsetInCU: 0x14EC6, offset: 0x14EC6, size: 0x8, addend: 0x0, symName: __ZNSt8__detail15_Hashtable_baseIcSt4pairIKciENS_10_Select1stESt8equal_toIcESt4hashIcENS_18_Mod_range_hashingENS_20_Default_ranged_hashENS_17_Hashtable_traitsILb0ELb0ELb1EEEEC2Ev, symObjAddr: 0x1E8, symBinAddr: 0x100000B54, symSize: 0x28 }
  - { offsetInCU: 0x14E87, offset: 0x14E87, size: 0x8, addend: 0x0, symName: __Z3cmpRSt4pairIciES1_, symObjAddr: 0x198, symBinAddr: 0x100000B04, symSize: 0x30 }
  - { offsetInCU: 0x14E8F, offset: 0x14E8F, size: 0x8, addend: 0x0, symName: __ZNSt8__detail15_Hash_code_baseIcSt4pairIKciENS_10_Select1stESt4hashIcENS_18_Mod_range_hashingENS_20_Default_ranged_hashELb0EEC2Ev, symObjAddr: 0x1C8, symBinAddr: 0x100000B34, symSize: 0x20 }
  - { offsetInCU: 0x14EEA, offset: 0x14EEA, size: 0x8, addend: 0x0, symName: __ZSt3minImERKT_S2_S2_, symObjAddr: 0x160, symBinAddr: 0x100000ACC, symSize: 0x38 }
  - { offsetInCU: 0x14EF2, offset: 0x14EF2, size: 0x8, addend: 0x0, symName: __Z3cmpRSt4pairIciES1_, symObjAddr: 0x198, symBinAddr: 0x100000B04, symSize: 0x30 }
  - { offsetInCU: 0x14F16, offset: 0x14F16, size: 0x8, addend: 0x0, symName: __ZNSt8__detail20_Prime_rehash_policy8_M_resetEm, symObjAddr: 0x13C, symBinAddr: 0x100000AA8, symSize: 0x24 }
  - { offsetInCU: 0x14F1E, offset: 0x14F1E, size: 0x8, addend: 0x0, symName: __ZSt3minImERKT_S2_S2_, symObjAddr: 0x160, symBinAddr: 0x100000ACC, symSize: 0x38 }
  - { offsetInCU: 0x14F59, offset: 0x14F59, size: 0x8, addend: 0x0, symName: __ZNKSt8__detail20_Prime_rehash_policy8_M_stateEv, symObjAddr: 0x124, symBinAddr: 0x100000A90, symSize: 0x18 }
  - { offsetInCU: 0x14F61, offset: 0x14F61, size: 0x8, addend: 0x0, symName: __ZNSt8__detail20_Prime_rehash_policy8_M_resetEm, symObjAddr: 0x13C, symBinAddr: 0x100000AA8, symSize: 0x24 }
  - { offsetInCU: 0x14FDB, offset: 0x14FDB, size: 0x8, addend: 0x0, symName: __ZNSt8__detail20_Prime_rehash_policyC1Ef, symObjAddr: 0xF8, symBinAddr: 0x100000A64, symSize: 0x2C }
  - { offsetInCU: 0x14FE3, offset: 0x14FE3, size: 0x8, addend: 0x0, symName: __ZNKSt8__detail20_Prime_rehash_policy8_M_stateEv, symObjAddr: 0x124, symBinAddr: 0x100000A90, symSize: 0x18 }
  - { offsetInCU: 0x14FEC, offset: 0x14FEC, size: 0x8, addend: 0x0, symName: __ZNKSt8__detail18_Mod_range_hashingclEmm, symObjAddr: 0xC8, symBinAddr: 0x100000A34, symSize: 0x30 }
  - { offsetInCU: 0x14FF4, offset: 0x14FF4, size: 0x8, addend: 0x0, symName: __ZNSt8__detail20_Prime_rehash_policyC1Ef, symObjAddr: 0xF8, symBinAddr: 0x100000A64, symSize: 0x2C }
  - { offsetInCU: 0x15080, offset: 0x15080, size: 0x8, addend: 0x0, symName: __ZNSt8__detail15_Hash_node_baseC1Ev, symObjAddr: 0xAC, symBinAddr: 0x100000A18, symSize: 0x1C }
  - { offsetInCU: 0x15088, offset: 0x15088, size: 0x8, addend: 0x0, symName: __ZNKSt8__detail18_Mod_range_hashingclEmm, symObjAddr: 0xC8, symBinAddr: 0x100000A34, symSize: 0x30 }
  - { offsetInCU: 0x150AE, offset: 0x150AE, size: 0x8, addend: 0x0, symName: __ZNSt8__detail15_Hash_node_baseC2Ev, symObjAddr: 0x90, symBinAddr: 0x1000009FC, symSize: 0x1C }
  - { offsetInCU: 0x150B6, offset: 0x150B6, size: 0x8, addend: 0x0, symName: __ZNSt8__detail15_Hash_node_baseC1Ev, symObjAddr: 0xAC, symBinAddr: 0x100000A18, symSize: 0x1C }
  - { offsetInCU: 0x150B8, offset: 0x150B8, size: 0x8, addend: 0x0, symName: __ZNKSt4hashIcEclEc, symObjAddr: 0x78, symBinAddr: 0x1000009E4, symSize: 0x18 }
  - { offsetInCU: 0x150C0, offset: 0x150C0, size: 0x8, addend: 0x0, symName: __ZNSt8__detail15_Hash_node_baseC2Ev, symObjAddr: 0x90, symBinAddr: 0x1000009FC, symSize: 0x1C }
  - { offsetInCU: 0x150FA, offset: 0x150FA, size: 0x8, addend: 0x0, symName: __ZNSt11char_traitsIcE6lengthEPKc, symObjAddr: 0x38, symBinAddr: 0x1000009A4, symSize: 0x40 }
  - { offsetInCU: 0x15102, offset: 0x15102, size: 0x8, addend: 0x0, symName: __ZNKSt4hashIcEclEc, symObjAddr: 0x78, symBinAddr: 0x1000009E4, symSize: 0x18 }
  - { offsetInCU: 0x1513A, offset: 0x1513A, size: 0x8, addend: 0x0, symName: __ZdlPvS_, symObjAddr: 0x20, symBinAddr: 0x10000098C, symSize: 0x18 }
  - { offsetInCU: 0x15142, offset: 0x15142, size: 0x8, addend: 0x0, symName: __ZNSt11char_traitsIcE6lengthEPKc, symObjAddr: 0x38, symBinAddr: 0x1000009A4, symSize: 0x40 }
  - { offsetInCU: 0x15177, offset: 0x15177, size: 0x8, addend: 0x0, symName: __ZnwmPv, symObjAddr: 0x8, symBinAddr: 0x100000974, symSize: 0x18 }
  - { offsetInCU: 0x1517F, offset: 0x1517F, size: 0x8, addend: 0x0, symName: __ZdlPvS_, symObjAddr: 0x20, symBinAddr: 0x10000098C, symSize: 0x18 }
  - { offsetInCU: 0x151EC, offset: 0x151EC, size: 0x8, addend: 0x0, symName: __ZSt23__is_constant_evaluatedv, symObjAddr: 0x0, symBinAddr: 0x10000096C, symSize: 0x8 }
  - { offsetInCU: 0x151F4, offset: 0x151F4, size: 0x8, addend: 0x0, symName: __ZnwmPv, symObjAddr: 0x8, symBinAddr: 0x100000974, symSize: 0x18 }
...
